ARM GAS  C:\Users\Gemma\AppData\Local\Temp\cc8ZgC3A.s 			page 1


   1              		.syntax unified
   2              		.cpu cortex-m3
   3              		.fpu softvfp
   4              		.eabi_attribute 20, 1
   5              		.eabi_attribute 21, 1
   6              		.eabi_attribute 23, 3
   7              		.eabi_attribute 24, 1
   8              		.eabi_attribute 25, 1
   9              		.eabi_attribute 26, 1
  10              		.eabi_attribute 30, 1
  11              		.eabi_attribute 34, 1
  12              		.eabi_attribute 18, 4
  13              		.thumb
  14              		.syntax unified
  15              		.file	"main.c"
  16              		.text
  17              	.Ltext0:
  18              		.cfi_sections	.debug_frame
  19              		.section	.text.MyButtonISR,"ax",%progbits
  20              		.align	2
  21              		.global	MyButtonISR
  22              		.thumb
  23              		.thumb_func
  24              		.type	MyButtonISR, %function
  25              	MyButtonISR:
  26              	.LFB65:
  27              		.file 1 "main.c"
   1:main.c        **** /* ================================================================
   2:main.c        ****  *
   3:main.c        ****  * Copyright: Gemma Qin,  Metropolia UAS, Finland, 2024
   4:main.c        ****  *
   5:main.c        ****  * PSoC Design Course 2024: Exercise 2, Timers and Interrupts
   6:main.c        ****  *
   7:main.c        ****  * Exercise description: 
   8:main.c        ****  *   - (When program initialized motor changed from turning to stop.)
   9:main.c        ****  *   - Servo motor starts turning when button is pressed. Speed increases 
  10:main.c        ****  *     gradually to final speed. Maintain rotation until new button press.
  11:main.c        ****  *   - If button is pressed when motor is turning, motor decreases speed 
  12:main.c        ****  *     gradually until it stops and waits for new button press to start. 
  13:main.c        ****  *
  14:main.c        ****  * CC-NA-SA 4.0 
  15:main.c        ****  *
  16:main.c        ****  * ================================================================
  17:main.c        **** */
  18:main.c        **** 
  19:main.c        **** #include <stdio.h>
  20:main.c        **** #include "project.h"
  21:main.c        **** 
  22:main.c        **** /* Project Defines */
  23:main.c        **** #define NUM_SPEEDS 4
  24:main.c        **** #define MIN_SPEED 1000
  25:main.c        **** #define MAX_SPEED 2400
  26:main.c        **** #define SPEED_STEP 5
  27:main.c        **** 
  28:main.c        **** /* Global variables */
  29:main.c        **** uint8_t current_speed_index = 0;
  30:main.c        **** uint16_t speeds[NUM_SPEEDS] = {1000, 1475, 1525, 2200};
ARM GAS  C:\Users\Gemma\AppData\Local\Temp\cc8ZgC3A.s 			page 2


  31:main.c        **** 
  32:main.c        **** /* Interrupt service routine declarations */
  33:main.c        **** CY_ISR_PROTO(MyButtonISR);
  34:main.c        **** CY_ISR_PROTO(MyPWMISR);
  35:main.c        **** 
  36:main.c        **** /*******************************************************************************
  37:main.c        **** * Function Name: main
  38:main.c        **** ********************************************************************************
  39:main.c        **** *
  40:main.c        **** * Summary:
  41:main.c        **** *  Initializes PWM and interrupts.
  42:main.c        **** *
  43:main.c        **** * Parameters:
  44:main.c        **** *  None.
  45:main.c        **** *
  46:main.c        **** * Return:
  47:main.c        **** *  None.
  48:main.c        **** *
  49:main.c        **** * Remarks: 
  50:main.c        **** *  - Specification: 
  51:main.c        **** *       - PWM: 2[0] PWMOut, PWM_Clock 1 MHz, 16-bit UDB, interrupt: PWM_Isr
  52:main.c        **** *       - Button: 2[2], interrupt: BTN_Isr
  53:main.c        **** *
  54:main.c        **** *******************************************************************************/
  55:main.c        **** int main(void)
  56:main.c        **** {
  57:main.c        ****     CyGlobalIntEnable; /* Enable global interrupts. */
  58:main.c        ****     
  59:main.c        ****     PWM_Start();
  60:main.c        ****     
  61:main.c        ****     BTN_Isr_StartEx(MyButtonISR);
  62:main.c        ****     PWM_Isr_StartEx(MyPWMISR);
  63:main.c        **** 
  64:main.c        ****     for(;;)  /* Forever loop */
  65:main.c        ****     {
  66:main.c        ****         // :)
  67:main.c        ****     }
  68:main.c        **** }
  69:main.c        **** 
  70:main.c        **** /*******************************************************************************
  71:main.c        **** * Function Name: MyButtonISR
  72:main.c        **** ********************************************************************************
  73:main.c        **** *
  74:main.c        **** * Summary:
  75:main.c        **** *  Increment speeds' index. Resets index, if max index reached.
  76:main.c        **** *  Clears interrupt.
  77:main.c        **** *
  78:main.c        **** * Parameters:
  79:main.c        **** *  None.
  80:main.c        **** *
  81:main.c        **** * Return:
  82:main.c        **** *  None.
  83:main.c        **** *
  84:main.c        **** *******************************************************************************/
  85:main.c        **** CY_ISR(MyButtonISR) {
  28              		.loc 1 85 0
  29              		.cfi_startproc
ARM GAS  C:\Users\Gemma\AppData\Local\Temp\cc8ZgC3A.s 			page 3


  30              		@ args = 0, pretend = 0, frame = 0
  31              		@ frame_needed = 0, uses_anonymous_args = 0
  32 0000 08B5     		push	{r3, lr}
  33              		.cfi_def_cfa_offset 8
  34              		.cfi_offset 3, -8
  35              		.cfi_offset 14, -4
  86:main.c        ****     /* Increment and check speed index */
  87:main.c        ****     if (++current_speed_index >= NUM_SPEEDS) {
  36              		.loc 1 87 0
  37 0002 064A     		ldr	r2, .L4
  38 0004 1378     		ldrb	r3, [r2]	@ zero_extendqisi2
  39 0006 0133     		adds	r3, r3, #1
  40 0008 DBB2     		uxtb	r3, r3
  41 000a 1370     		strb	r3, [r2]
  42 000c 032B     		cmp	r3, #3
  43 000e 02D9     		bls	.L2
  88:main.c        ****         current_speed_index = 0;    
  44              		.loc 1 88 0
  45 0010 0022     		movs	r2, #0
  46 0012 024B     		ldr	r3, .L4
  47 0014 1A70     		strb	r2, [r3]
  48              	.L2:
  89:main.c        ****     }
  90:main.c        ****     Button_ClearInterrupt();        // Clears the pending interrupt.
  49              		.loc 1 90 0
  50 0016 FFF7FEFF 		bl	Button_ClearInterrupt
  51              	.LVL0:
  52 001a 08BD     		pop	{r3, pc}
  53              	.L5:
  54              		.align	2
  55              	.L4:
  56 001c 00000000 		.word	.LANCHOR0
  57              		.cfi_endproc
  58              	.LFE65:
  59              		.size	MyButtonISR, .-MyButtonISR
  60              		.section	.text.MyPWMISR,"ax",%progbits
  61              		.align	2
  62              		.global	MyPWMISR
  63              		.thumb
  64              		.thumb_func
  65              		.type	MyPWMISR, %function
  66              	MyPWMISR:
  67              	.LFB66:
  91:main.c        **** }
  92:main.c        **** 
  93:main.c        **** /*******************************************************************************
  94:main.c        **** * Function Name: MyPWMISR
  95:main.c        **** ********************************************************************************
  96:main.c        **** *
  97:main.c        **** * Summary:
  98:main.c        **** *  Smoothly increase / decrease speed towards the desired value of servo motor.
  99:main.c        **** *
 100:main.c        **** * Parameters:
 101:main.c        **** *  None.
 102:main.c        **** *
 103:main.c        **** * Return:
 104:main.c        **** *  None.
ARM GAS  C:\Users\Gemma\AppData\Local\Temp\cc8ZgC3A.s 			page 4


 105:main.c        **** *
 106:main.c        **** *******************************************************************************/
 107:main.c        **** CY_ISR(MyPWMISR) {
  68              		.loc 1 107 0
  69              		.cfi_startproc
  70              		@ args = 0, pretend = 0, frame = 0
  71              		@ frame_needed = 0, uses_anonymous_args = 0
  72 0000 08B5     		push	{r3, lr}
  73              		.cfi_def_cfa_offset 8
  74              		.cfi_offset 3, -8
  75              		.cfi_offset 14, -4
 108:main.c        ****     static uint16_t current_speed = MIN_SPEED;
 109:main.c        ****     if (PWM_ReadStatusRegister() & PWM_STATUS_TC) {
  76              		.loc 1 109 0
  77 0002 FFF7FEFF 		bl	PWM_ReadStatusRegister
  78              	.LVL1:
  79 0006 10F0040F 		tst	r0, #4
  80 000a 20D0     		beq	.L6
 110:main.c        ****         if (current_speed < speeds[current_speed_index]) {
  81              		.loc 1 110 0
  82 000c 104B     		ldr	r3, .L12
  83 000e 114A     		ldr	r2, .L12+4
  84 0010 1278     		ldrb	r2, [r2]	@ zero_extendqisi2
  85 0012 33F81220 		ldrh	r2, [r3, r2, lsl #1]
  86 0016 1B89     		ldrh	r3, [r3, #8]
  87 0018 9A42     		cmp	r2, r3
  88 001a 0BD9     		bls	.L8
 111:main.c        ****             current_speed += SPEED_STEP;
  89              		.loc 1 111 0
  90 001c 0533     		adds	r3, r3, #5
  91 001e 9BB2     		uxth	r3, r3
  92 0020 0B49     		ldr	r1, .L12
  93 0022 0B81     		strh	r3, [r1, #8]	@ movhi
 112:main.c        ****             if (current_speed > speeds[current_speed_index]) {
  94              		.loc 1 112 0
  95 0024 9A42     		cmp	r2, r3
  96 0026 00D2     		bcs	.L9
 113:main.c        ****                 current_speed = speeds[current_speed_index];
  97              		.loc 1 113 0
  98 0028 0A81     		strh	r2, [r1, #8]	@ movhi
  99              	.L9:
 114:main.c        ****             }
 115:main.c        ****             PWM_WriteCompare(current_speed);
 100              		.loc 1 115 0
 101 002a 094B     		ldr	r3, .L12
 102 002c 1889     		ldrh	r0, [r3, #8]
 103 002e FFF7FEFF 		bl	PWM_WriteCompare
 104              	.LVL2:
 105 0032 08BD     		pop	{r3, pc}
 106              	.L8:
 116:main.c        ****         } else if (current_speed > speeds[current_speed_index]) {
 107              		.loc 1 116 0
 108 0034 9A42     		cmp	r2, r3
 109 0036 0AD2     		bcs	.L6
 117:main.c        ****             current_speed -= SPEED_STEP;
 110              		.loc 1 117 0
 111 0038 053B     		subs	r3, r3, #5
ARM GAS  C:\Users\Gemma\AppData\Local\Temp\cc8ZgC3A.s 			page 5


 112 003a 9BB2     		uxth	r3, r3
 113 003c 0449     		ldr	r1, .L12
 114 003e 0B81     		strh	r3, [r1, #8]	@ movhi
 118:main.c        ****             if (current_speed < speeds[current_speed_index]) {
 115              		.loc 1 118 0
 116 0040 9A42     		cmp	r2, r3
 117 0042 00D9     		bls	.L10
 119:main.c        ****                 current_speed = speeds[current_speed_index];
 118              		.loc 1 119 0
 119 0044 0A81     		strh	r2, [r1, #8]	@ movhi
 120              	.L10:
 120:main.c        ****             }
 121:main.c        ****             PWM_WriteCompare(current_speed);
 121              		.loc 1 121 0
 122 0046 024B     		ldr	r3, .L12
 123 0048 1889     		ldrh	r0, [r3, #8]
 124 004a FFF7FEFF 		bl	PWM_WriteCompare
 125              	.LVL3:
 126              	.L6:
 127 004e 08BD     		pop	{r3, pc}
 128              	.L13:
 129              		.align	2
 130              	.L12:
 131 0050 00000000 		.word	.LANCHOR1
 132 0054 00000000 		.word	.LANCHOR0
 133              		.cfi_endproc
 134              	.LFE66:
 135              		.size	MyPWMISR, .-MyPWMISR
 136              		.section	.text.main,"ax",%progbits
 137              		.align	2
 138              		.global	main
 139              		.thumb
 140              		.thumb_func
 141              		.type	main, %function
 142              	main:
 143              	.LFB64:
  56:main.c        ****     CyGlobalIntEnable; /* Enable global interrupts. */
 144              		.loc 1 56 0
 145              		.cfi_startproc
 146              		@ Volatile: function does not return.
 147              		@ args = 0, pretend = 0, frame = 0
 148              		@ frame_needed = 0, uses_anonymous_args = 0
 149 0000 08B5     		push	{r3, lr}
 150              		.cfi_def_cfa_offset 8
 151              		.cfi_offset 3, -8
 152              		.cfi_offset 14, -4
  57:main.c        ****     
 153              		.loc 1 57 0
 154              		.syntax unified
 155              	@ 57 "main.c" 1
 156 0002 62B6     		CPSIE   i
 157              	@ 0 "" 2
  59:main.c        ****     
 158              		.loc 1 59 0
 159              		.thumb
 160              		.syntax unified
 161 0004 FFF7FEFF 		bl	PWM_Start
ARM GAS  C:\Users\Gemma\AppData\Local\Temp\cc8ZgC3A.s 			page 6


 162              	.LVL4:
  61:main.c        ****     PWM_Isr_StartEx(MyPWMISR);
 163              		.loc 1 61 0
 164 0008 0348     		ldr	r0, .L17
 165 000a FFF7FEFF 		bl	BTN_Isr_StartEx
 166              	.LVL5:
  62:main.c        **** 
 167              		.loc 1 62 0
 168 000e 0348     		ldr	r0, .L17+4
 169 0010 FFF7FEFF 		bl	PWM_Isr_StartEx
 170              	.LVL6:
 171              	.L15:
 172 0014 FEE7     		b	.L15
 173              	.L18:
 174 0016 00BF     		.align	2
 175              	.L17:
 176 0018 00000000 		.word	MyButtonISR
 177 001c 00000000 		.word	MyPWMISR
 178              		.cfi_endproc
 179              	.LFE64:
 180              		.size	main, .-main
 181              		.global	speeds
 182              		.global	current_speed_index
 183              		.data
 184              		.align	2
 185              		.set	.LANCHOR1,. + 0
 186              		.type	speeds, %object
 187              		.size	speeds, 8
 188              	speeds:
 189 0000 E803     		.short	1000
 190 0002 C305     		.short	1475
 191 0004 F505     		.short	1525
 192 0006 9808     		.short	2200
 193              		.type	current_speed.6450, %object
 194              		.size	current_speed.6450, 2
 195              	current_speed.6450:
 196 0008 E803     		.short	1000
 197              		.bss
 198              		.set	.LANCHOR0,. + 0
 199              		.type	current_speed_index, %object
 200              		.size	current_speed_index, 1
 201              	current_speed_index:
 202 0000 00       		.space	1
 203              		.text
 204              	.Letext0:
 205              		.file 2 "c:\\program files (x86)\\cypress\\psoc creator\\4.2\\psoc creator\\import\\gnu\\arm\\5.4.
 206              		.file 3 "c:\\program files (x86)\\cypress\\psoc creator\\4.2\\psoc creator\\import\\gnu\\arm\\5.4.
 207              		.file 4 "Generated_Source\\PSoC5/cytypes.h"
 208              		.file 5 "Generated_Source\\PSoC5/core_cm3.h"
 209              		.file 6 "Generated_Source\\PSoC5/Button.h"
 210              		.file 7 "Generated_Source\\PSoC5/PWM.h"
 211              		.file 8 "Generated_Source\\PSoC5/BTN_Isr.h"
 212              		.file 9 "Generated_Source\\PSoC5/PWM_Isr.h"