ARM GAS  C:\Users\Gemma\AppData\Local\Temp\ccNpuYGJ.s 			page 1


   1              		.syntax unified
   2              		.cpu cortex-m3
   3              		.fpu softvfp
   4              		.eabi_attribute 20, 1
   5              		.eabi_attribute 21, 1
   6              		.eabi_attribute 23, 3
   7              		.eabi_attribute 24, 1
   8              		.eabi_attribute 25, 1
   9              		.eabi_attribute 26, 1
  10              		.eabi_attribute 30, 1
  11              		.eabi_attribute 34, 1
  12              		.eabi_attribute 18, 4
  13              		.thumb
  14              		.syntax unified
  15              		.file	"main.c"
  16              		.text
  17              	.Ltext0:
  18              		.cfi_sections	.debug_frame
  19              		.section	.text.MyADCIsr,"ax",%progbits
  20              		.align	2
  21              		.global	MyADCIsr
  22              		.thumb
  23              		.thumb_func
  24              		.type	MyADCIsr, %function
  25              	MyADCIsr:
  26              	.LFB65:
  27              		.file 1 "main.c"
   1:main.c        **** /* ========================================
   2:main.c        ****  *
   3:main.c        ****  * Copyright: Gemma Qin, Metropolia UAS, Finland, 2024
   4:main.c        ****  * 
   5:main.c        ****  * PSoC Design Course 2024: Project 
   6:main.c        ****  *
   7:main.c        ****  * Project Description: 
   8:main.c        ****  * 
   9:main.c        ****  *
  10:main.c        ****  * ========================================
  11:main.c        **** */
  12:main.c        **** 
  13:main.c        **** /*  Libraries  */
  14:main.c        **** #include "project.h"
  15:main.c        **** #include "stdio.h"
  16:main.c        **** #include "ring_buffer.h"
  17:main.c        **** 
  18:main.c        **** /* Project Defines */
  19:main.c        **** #define TRANSMIT_BUFFER_SIZE 128
  20:main.c        **** 
  21:main.c        **** /* Interrupt declarations */
  22:main.c        **** CY_ISR_PROTO(MyADCIsr);
  23:main.c        **** 
  24:main.c        **** /*******************************************************************************
  25:main.c        **** * Function Name: main
  26:main.c        **** ********************************************************************************
  27:main.c        **** *
  28:main.c        **** * Summary:
  29:main.c        **** *  
  30:main.c        **** *
ARM GAS  C:\Users\Gemma\AppData\Local\Temp\ccNpuYGJ.s 			page 2


  31:main.c        **** * Parameters:
  32:main.c        **** *  None.
  33:main.c        **** *
  34:main.c        **** * Return:
  35:main.c        **** *  None.
  36:main.c        **** *
  37:main.c        **** * Remarks: 
  38:main.c        **** *  - Specification: 
  39:main.c        **** *       - DEBUG_UART: 12[6] RX, 12[7] TX, 115200 bps
  40:main.c        **** *       - I2C Slave: 12[0] SCL, 12[1] SDA, I2C_CLK 6 MHz
  41:main.c        **** *       - ADC_DelSig: 
  42:main.c        **** *               - AMux: 4 channels (2[3] Potentiometer, 2[4] LM35, 2[5] , 2[6] )
  43:main.c        **** *               - ADC_Clock 3 MHz
  44:main.c        **** *               - ADC_ISR
  45:main.c        **** *  - Design works with internal pull up resistor of 5 kOhm.
  46:main.c        **** *
  47:main.c        **** *******************************************************************************/
  48:main.c        **** int main(void)
  49:main.c        **** {
  50:main.c        ****     CyGlobalIntEnable; /* Enable global interrupts. */
  51:main.c        **** 
  52:main.c        ****     /* Local variables */
  53:main.c        ****     // UART
  54:main.c        ****     char transmit_buffer[TRANSMIT_BUFFER_SIZE];
  55:main.c        **** 
  56:main.c        ****     /* Start the components and interrupts */
  57:main.c        ****     DEBUG_UART_Start();
  58:main.c        ****     ADC_DelSig_Start();
  59:main.c        ****     AMux_Start();
  60:main.c        ****     
  61:main.c        ****     ADC_ISR_StartEx(MyADCIsr);
  62:main.c        ****     
  63:main.c        ****     /* Send message to verify COM port is connected properly */
  64:main.c        ****     DEBUG_UART_PutString("COM Port Open\r\n");  
  65:main.c        ****     
  66:main.c        ****     /* Start the ADC conversion */
  67:main.c        ****     ADC_DelSig_StartConvert();
  68:main.c        ****     
  69:main.c        ****     for(;;)
  70:main.c        ****     {
  71:main.c        ****         /* A little put put here. */
  72:main.c        ****     }
  73:main.c        **** }
  74:main.c        **** 
  75:main.c        **** /* [] END OF FILE */
  76:main.c        **** 
  77:main.c        **** /*******************************************************************************
  78:main.c        **** * Function Name: MyADCIsr         ADC Interrupt Service Routine
  79:main.c        **** ********************************************************************************
  80:main.c        **** *
  81:main.c        **** * Summary:
  82:main.c        **** *  
  83:main.c        **** *
  84:main.c        **** * Parameters:  
  85:main.c        **** *
  86:main.c        **** * Return:
  87:main.c        **** *   None
ARM GAS  C:\Users\Gemma\AppData\Local\Temp\ccNpuYGJ.s 			page 3


  88:main.c        **** *
  89:main.c        **** *******************************************************************************/
  90:main.c        **** CY_ISR(MyADCIsr) {
  28              		.loc 1 90 0
  29              		.cfi_startproc
  30              		@ args = 0, pretend = 0, frame = 0
  31              		@ frame_needed = 0, uses_anonymous_args = 0
  32 0000 08B5     		push	{r3, lr}
  33              		.cfi_def_cfa_offset 8
  34              		.cfi_offset 3, -8
  35              		.cfi_offset 14, -4
  91:main.c        ****     uint32 Output = ADC_DelSig_CountsTo_mVolts(ADC_DelSig_GetResult16());
  36              		.loc 1 91 0
  37 0002 FFF7FEFF 		bl	ADC_DelSig_GetResult16
  38              	.LVL0:
  39 0006 FFF7FEFF 		bl	ADC_DelSig_CountsTo_mVolts
  40              	.LVL1:
  41 000a 08BD     		pop	{r3, pc}
  42              		.cfi_endproc
  43              	.LFE65:
  44              		.size	MyADCIsr, .-MyADCIsr
  45              		.section	.text.main,"ax",%progbits
  46              		.align	2
  47              		.global	main
  48              		.thumb
  49              		.thumb_func
  50              		.type	main, %function
  51              	main:
  52              	.LFB64:
  49:main.c        ****     CyGlobalIntEnable; /* Enable global interrupts. */
  53              		.loc 1 49 0
  54              		.cfi_startproc
  55              		@ Volatile: function does not return.
  56              		@ args = 0, pretend = 0, frame = 0
  57              		@ frame_needed = 0, uses_anonymous_args = 0
  58 0000 08B5     		push	{r3, lr}
  59              		.cfi_def_cfa_offset 8
  60              		.cfi_offset 3, -8
  61              		.cfi_offset 14, -4
  50:main.c        **** 
  62              		.loc 1 50 0
  63              		.syntax unified
  64              	@ 50 "main.c" 1
  65 0002 62B6     		CPSIE   i
  66              	@ 0 "" 2
  57:main.c        ****     ADC_DelSig_Start();
  67              		.loc 1 57 0
  68              		.thumb
  69              		.syntax unified
  70 0004 FFF7FEFF 		bl	DEBUG_UART_Start
  71              	.LVL2:
  58:main.c        ****     AMux_Start();
  72              		.loc 1 58 0
  73 0008 FFF7FEFF 		bl	ADC_DelSig_Start
  74              	.LVL3:
  59:main.c        ****     
  75              		.loc 1 59 0
ARM GAS  C:\Users\Gemma\AppData\Local\Temp\ccNpuYGJ.s 			page 4


  76 000c FFF7FEFF 		bl	AMux_Start
  77              	.LVL4:
  61:main.c        ****     
  78              		.loc 1 61 0
  79 0010 0448     		ldr	r0, .L6
  80 0012 FFF7FEFF 		bl	ADC_ISR_StartEx
  81              	.LVL5:
  64:main.c        ****     
  82              		.loc 1 64 0
  83 0016 0448     		ldr	r0, .L6+4
  84 0018 FFF7FEFF 		bl	DEBUG_UART_PutString
  85              	.LVL6:
  67:main.c        ****     
  86              		.loc 1 67 0
  87 001c FFF7FEFF 		bl	ADC_DelSig_StartConvert
  88              	.LVL7:
  89              	.L4:
  90 0020 FEE7     		b	.L4
  91              	.L7:
  92 0022 00BF     		.align	2
  93              	.L6:
  94 0024 00000000 		.word	MyADCIsr
  95 0028 00000000 		.word	.LC0
  96              		.cfi_endproc
  97              	.LFE64:
  98              		.size	main, .-main
  99              		.section	.rodata.str1.4,"aMS",%progbits,1
 100              		.align	2
 101              	.LC0:
 102 0000 434F4D20 		.ascii	"COM Port Open\015\012\000"
 102      506F7274 
 102      204F7065 
 102      6E0D0A00 
 103              		.text
 104              	.Letext0:
 105              		.file 2 "c:\\program files (x86)\\cypress\\psoc creator\\4.2\\psoc creator\\import\\gnu\\arm\\5.4.
 106              		.file 3 "c:\\program files (x86)\\cypress\\psoc creator\\4.2\\psoc creator\\import\\gnu\\arm\\5.4.
 107              		.file 4 "Generated_Source\\PSoC5/cytypes.h"
 108              		.file 5 "Generated_Source\\PSoC5/ADC_DelSig.h"
 109              		.file 6 "Generated_Source\\PSoC5/DEBUG_UART.h"
 110              		.file 7 "Generated_Source\\PSoC5/AMux.h"
 111              		.file 8 "Generated_Source\\PSoC5/ADC_ISR.h"
 112              		.file 9 "Generated_Source\\PSoC5/core_cm3.h"