ARM GAS  C:\Users\Gemma\AppData\Local\Temp\ccSJBXUX.s 			page 1


   1              		.syntax unified
   2              		.cpu cortex-m3
   3              		.fpu softvfp
   4              		.eabi_attribute 20, 1
   5              		.eabi_attribute 21, 1
   6              		.eabi_attribute 23, 3
   7              		.eabi_attribute 24, 1
   8              		.eabi_attribute 25, 1
   9              		.eabi_attribute 26, 1
  10              		.eabi_attribute 30, 1
  11              		.eabi_attribute 34, 1
  12              		.eabi_attribute 18, 4
  13              		.thumb
  14              		.syntax unified
  15              		.file	"ring_buffer.c"
  16              		.text
  17              	.Ltext0:
  18              		.cfi_sections	.debug_frame
  19              		.section	.text.circBuffInit,"ax",%progbits
  20              		.align	2
  21              		.global	circBuffInit
  22              		.thumb
  23              		.thumb_func
  24              		.type	circBuffInit, %function
  25              	circBuffInit:
  26              	.LFB1:
  27              		.file 1 "ring_buffer.c"
   1:ring_buffer.c **** /* ========================================
   2:ring_buffer.c ****  *
   3:ring_buffer.c ****  * Copyright: Gemma Qin, Metropolia UAS, Finland, 2024
   4:ring_buffer.c ****  * 
   5:ring_buffer.c ****  * PSoC Design Course 2024: Project 
   6:ring_buffer.c ****  *
   7:ring_buffer.c ****  * Circular Buffer 
   8:ring_buffer.c ****  * 
   9:ring_buffer.c ****  * ========================================
  10:ring_buffer.c **** */
  11:ring_buffer.c **** 
  12:ring_buffer.c **** #include "ring_buffer.h"
  13:ring_buffer.c **** 
  14:ring_buffer.c **** /*******************************************************************************
  15:ring_buffer.c **** * Function Name: circBuffInit 
  16:ring_buffer.c **** ********************************************************************************
  17:ring_buffer.c **** *
  18:ring_buffer.c **** * Summary:
  19:ring_buffer.c **** *   Initialises buffer instance.
  20:ring_buffer.c **** *
  21:ring_buffer.c **** * Parameters:  
  22:ring_buffer.c **** *   cb: input       pointer to the buffer instance
  23:ring_buffer.c **** *
  24:ring_buffer.c **** * Return:
  25:ring_buffer.c **** *   None
  26:ring_buffer.c **** *
  27:ring_buffer.c **** *******************************************************************************/
  28:ring_buffer.c **** void circBuffInit(CircularBuffer *const cb) {
  28              		.loc 1 28 0
  29              		.cfi_startproc
ARM GAS  C:\Users\Gemma\AppData\Local\Temp\ccSJBXUX.s 			page 2


  30              		@ args = 0, pretend = 0, frame = 0
  31              		@ frame_needed = 0, uses_anonymous_args = 0
  32              		@ link register save eliminated.
  33              	.LVL0:
  29:ring_buffer.c ****     cb->count = 0;
  34              		.loc 1 29 0
  35 0000 0023     		movs	r3, #0
  36 0002 A0F88430 		strh	r3, [r0, #132]	@ movhi
  30:ring_buffer.c ****     cb->head = 0;
  37              		.loc 1 30 0
  38 0006 A0F88030 		strh	r3, [r0, #128]	@ movhi
  31:ring_buffer.c ****     cb->tail = 0;
  39              		.loc 1 31 0
  40 000a A0F88230 		strh	r3, [r0, #130]	@ movhi
  41 000e 7047     		bx	lr
  42              		.cfi_endproc
  43              	.LFE1:
  44              		.size	circBuffInit, .-circBuffInit
  45              		.section	.text.isCircBuffEmpty,"ax",%progbits
  46              		.align	2
  47              		.global	isCircBuffEmpty
  48              		.thumb
  49              		.thumb_func
  50              		.type	isCircBuffEmpty, %function
  51              	isCircBuffEmpty:
  52              	.LFB2:
  32:ring_buffer.c **** }
  33:ring_buffer.c **** 
  34:ring_buffer.c **** /*******************************************************************************
  35:ring_buffer.c **** * Function Name: isCircBuffEmpty        
  36:ring_buffer.c **** ********************************************************************************
  37:ring_buffer.c **** *
  38:ring_buffer.c **** * Summary:
  39:ring_buffer.c **** *  Checks if buffer instance is empty.
  40:ring_buffer.c **** *
  41:ring_buffer.c **** * Parameters:  
  42:ring_buffer.c **** *   cb: input       pointer to the buffer instance
  43:ring_buffer.c **** *
  44:ring_buffer.c **** * Return:
  45:ring_buffer.c **** *   true (empty) / false (not empty) 
  46:ring_buffer.c **** *
  47:ring_buffer.c **** *******************************************************************************/
  48:ring_buffer.c **** uint8_t isCircBuffEmpty(const CircularBuffer *const cb) {
  53              		.loc 1 48 0
  54              		.cfi_startproc
  55              		@ args = 0, pretend = 0, frame = 0
  56              		@ frame_needed = 0, uses_anonymous_args = 0
  57              		@ link register save eliminated.
  58              	.LVL1:
  49:ring_buffer.c ****     return (cb->count == 0) ? 1 : 0;
  59              		.loc 1 49 0
  60 0000 B0F88400 		ldrh	r0, [r0, #132]
  61              	.LVL2:
  50:ring_buffer.c **** }
  62              		.loc 1 50 0
  63 0004 B0FA80F0 		clz	r0, r0
  64 0008 4009     		lsrs	r0, r0, #5
ARM GAS  C:\Users\Gemma\AppData\Local\Temp\ccSJBXUX.s 			page 3


  65 000a 7047     		bx	lr
  66              		.cfi_endproc
  67              	.LFE2:
  68              		.size	isCircBuffEmpty, .-isCircBuffEmpty
  69              		.section	.text.isCircBuffFull,"ax",%progbits
  70              		.align	2
  71              		.global	isCircBuffFull
  72              		.thumb
  73              		.thumb_func
  74              		.type	isCircBuffFull, %function
  75              	isCircBuffFull:
  76              	.LFB3:
  51:ring_buffer.c **** 
  52:ring_buffer.c **** /*******************************************************************************
  53:ring_buffer.c **** * Function Name: isCircBuffFull       
  54:ring_buffer.c **** ********************************************************************************
  55:ring_buffer.c **** *
  56:ring_buffer.c **** * Summary:
  57:ring_buffer.c **** *   Checks if buffer instance is full.
  58:ring_buffer.c **** *
  59:ring_buffer.c **** * Parameters:  
  60:ring_buffer.c **** *   cb: input       pointer to the buffer instance
  61:ring_buffer.c **** *
  62:ring_buffer.c **** * Return:
  63:ring_buffer.c **** *   true (full) / false (not full)
  64:ring_buffer.c **** *
  65:ring_buffer.c **** *******************************************************************************/
  66:ring_buffer.c **** uint8_t isCircBuffFull(const CircularBuffer *const cb) {
  77              		.loc 1 66 0
  78              		.cfi_startproc
  79              		@ args = 0, pretend = 0, frame = 0
  80              		@ frame_needed = 0, uses_anonymous_args = 0
  81              		@ link register save eliminated.
  82              	.LVL3:
  67:ring_buffer.c ****     return (cb->count >= MAX_BUFFER_SIZE) ? 1 : 0;
  83              		.loc 1 67 0
  84 0000 B0F88400 		ldrh	r0, [r0, #132]
  85              	.LVL4:
  68:ring_buffer.c **** }
  86              		.loc 1 68 0
  87 0004 3F28     		cmp	r0, #63
  88 0006 94BF     		ite	ls
  89 0008 0020     		movls	r0, #0
  90 000a 0120     		movhi	r0, #1
  91 000c 7047     		bx	lr
  92              		.cfi_endproc
  93              	.LFE3:
  94              		.size	isCircBuffFull, .-isCircBuffFull
  95 000e 00BF     		.section	.text.circBuffPrint,"ax",%progbits
  96              		.align	2
  97              		.global	circBuffPrint
  98              		.thumb
  99              		.thumb_func
 100              		.type	circBuffPrint, %function
 101              	circBuffPrint:
 102              	.LFB4:
  69:ring_buffer.c **** 
ARM GAS  C:\Users\Gemma\AppData\Local\Temp\ccSJBXUX.s 			page 4


  70:ring_buffer.c **** /*******************************************************************************
  71:ring_buffer.c **** * Function Name: circBuffPrint      
  72:ring_buffer.c **** ********************************************************************************
  73:ring_buffer.c **** *
  74:ring_buffer.c **** * Summary:
  75:ring_buffer.c **** *   Prints the values of buffer instance.
  76:ring_buffer.c **** *
  77:ring_buffer.c **** * Parameters:  
  78:ring_buffer.c **** *   cb: input       pointer to the buffer instance
  79:ring_buffer.c **** *
  80:ring_buffer.c **** * Return:
  81:ring_buffer.c **** *   None
  82:ring_buffer.c **** *
  83:ring_buffer.c **** *******************************************************************************/
  84:ring_buffer.c **** void circBuffPrint(const CircularBuffer *const cb) {
 103              		.loc 1 84 0
 104              		.cfi_startproc
 105              		@ args = 0, pretend = 0, frame = 0
 106              		@ frame_needed = 0, uses_anonymous_args = 0
 107              	.LVL5:
 108 0000 70B5     		push	{r4, r5, r6, lr}
 109              		.cfi_def_cfa_offset 16
 110              		.cfi_offset 4, -16
 111              		.cfi_offset 5, -12
 112              		.cfi_offset 6, -8
 113              		.cfi_offset 14, -4
 114 0002 0646     		mov	r6, r0
  85:ring_buffer.c ****     if (isCircBuffEmpty(cb)) {
 115              		.loc 1 85 0
 116 0004 FFF7FEFF 		bl	isCircBuffEmpty
 117              	.LVL6:
 118 0008 18B1     		cbz	r0, .L5
  86:ring_buffer.c ****         printf("Empty circular buffer.\n");
 119              		.loc 1 86 0
 120 000a 0F48     		ldr	r0, .L12
 121 000c FFF7FEFF 		bl	puts
 122              	.LVL7:
  87:ring_buffer.c ****         return;
 123              		.loc 1 87 0
 124 0010 70BD     		pop	{r4, r5, r6, pc}
 125              	.LVL8:
 126              	.L5:
  88:ring_buffer.c ****     }
  89:ring_buffer.c **** 
  90:ring_buffer.c ****     uint16_t current = cb->head;
 127              		.loc 1 90 0
 128 0012 B6F88040 		ldrh	r4, [r6, #128]
 129              	.LVL9:
  91:ring_buffer.c ****     printf("Printing circular buffer: ");
 130              		.loc 1 91 0
 131 0016 0D48     		ldr	r0, .L12+4
 132 0018 FFF7FEFF 		bl	printf
 133              	.LVL10:
 134              	.LBB2:
  92:ring_buffer.c ****     for (uint16_t index = 0; index < cb->count; index++) {
 135              		.loc 1 92 0
 136 001c 0025     		movs	r5, #0
ARM GAS  C:\Users\Gemma\AppData\Local\Temp\ccSJBXUX.s 			page 5


 137 001e 0BE0     		b	.L7
 138              	.LVL11:
 139              	.L9:
  93:ring_buffer.c ****         printf("%d ", cb->buffer[current]);
 140              		.loc 1 93 0
 141 0020 36F81410 		ldrh	r1, [r6, r4, lsl #1]
 142 0024 0A48     		ldr	r0, .L12+8
 143 0026 FFF7FEFF 		bl	printf
 144              	.LVL12:
  94:ring_buffer.c ****         current++;
 145              		.loc 1 94 0
 146 002a 0134     		adds	r4, r4, #1
 147              	.LVL13:
 148 002c A4B2     		uxth	r4, r4
 149              	.LVL14:
  95:ring_buffer.c ****         // Wrap around if necessary
  96:ring_buffer.c ****         if (current >= MAX_BUFFER_SIZE) {
 150              		.loc 1 96 0
 151 002e 3F2C     		cmp	r4, #63
 152 0030 00D9     		bls	.L8
  97:ring_buffer.c ****             current = 0;
 153              		.loc 1 97 0
 154 0032 0024     		movs	r4, #0
 155              	.LVL15:
 156              	.L8:
  92:ring_buffer.c ****         printf("%d ", cb->buffer[current]);
 157              		.loc 1 92 0 discriminator 2
 158 0034 0135     		adds	r5, r5, #1
 159              	.LVL16:
 160 0036 ADB2     		uxth	r5, r5
 161              	.LVL17:
 162              	.L7:
  92:ring_buffer.c ****         printf("%d ", cb->buffer[current]);
 163              		.loc 1 92 0 is_stmt 0 discriminator 1
 164 0038 B6F88430 		ldrh	r3, [r6, #132]
 165 003c 9D42     		cmp	r5, r3
 166 003e EFD3     		bcc	.L9
 167              	.LBE2:
  98:ring_buffer.c ****         }
  99:ring_buffer.c ****     }
 100:ring_buffer.c ****     printf("\n");
 168              		.loc 1 100 0 is_stmt 1
 169 0040 0A20     		movs	r0, #10
 170 0042 FFF7FEFF 		bl	putchar
 171              	.LVL18:
 172 0046 70BD     		pop	{r4, r5, r6, pc}
 173              	.LVL19:
 174              	.L13:
 175              		.align	2
 176              	.L12:
 177 0048 00000000 		.word	.LC0
 178 004c 18000000 		.word	.LC1
 179 0050 34000000 		.word	.LC2
 180              		.cfi_endproc
 181              	.LFE4:
 182              		.size	circBuffPrint, .-circBuffPrint
 183              		.section	.text.enqueueCircBuff,"ax",%progbits
ARM GAS  C:\Users\Gemma\AppData\Local\Temp\ccSJBXUX.s 			page 6


 184              		.align	2
 185              		.global	enqueueCircBuff
 186              		.thumb
 187              		.thumb_func
 188              		.type	enqueueCircBuff, %function
 189              	enqueueCircBuff:
 190              	.LFB5:
 101:ring_buffer.c **** }
 102:ring_buffer.c **** 
 103:ring_buffer.c **** /*******************************************************************************
 104:ring_buffer.c **** * Function Name: enqueueCircBuff
 105:ring_buffer.c **** ********************************************************************************
 106:ring_buffer.c **** *
 107:ring_buffer.c **** * Summary:
 108:ring_buffer.c **** *   Queues new element to buffer instance. If buffer instance is full, removes
 109:ring_buffer.c **** *   oldest element.
 110:ring_buffer.c **** *
 111:ring_buffer.c **** * Parameters:  
 112:ring_buffer.c **** *   cb:     input       pointer to the buffer instance
 113:ring_buffer.c **** *   value:  input       new value to be queued
 114:ring_buffer.c **** *
 115:ring_buffer.c **** * Return:
 116:ring_buffer.c **** *   None
 117:ring_buffer.c **** *
 118:ring_buffer.c **** *******************************************************************************/
 119:ring_buffer.c **** void enqueueCircBuff(CircularBuffer *const cb, const uint16_t value) {
 191              		.loc 1 119 0
 192              		.cfi_startproc
 193              		@ args = 0, pretend = 0, frame = 0
 194              		@ frame_needed = 0, uses_anonymous_args = 0
 195              	.LVL20:
 196 0000 38B5     		push	{r3, r4, r5, lr}
 197              		.cfi_def_cfa_offset 16
 198              		.cfi_offset 3, -16
 199              		.cfi_offset 4, -12
 200              		.cfi_offset 5, -8
 201              		.cfi_offset 14, -4
 202 0002 0446     		mov	r4, r0
 203 0004 0D46     		mov	r5, r1
 120:ring_buffer.c ****     if (isCircBuffFull(cb)) {
 204              		.loc 1 120 0
 205 0006 FFF7FEFF 		bl	isCircBuffFull
 206              	.LVL21:
 207 000a 78B1     		cbz	r0, .L15
 121:ring_buffer.c ****         // Delete head value (move head by one)
 122:ring_buffer.c ****         cb->head++;
 208              		.loc 1 122 0
 209 000c B4F88030 		ldrh	r3, [r4, #128]
 210 0010 0133     		adds	r3, r3, #1
 211 0012 9BB2     		uxth	r3, r3
 212 0014 A4F88030 		strh	r3, [r4, #128]	@ movhi
 123:ring_buffer.c ****         cb->count--;
 213              		.loc 1 123 0
 214 0018 B4F88420 		ldrh	r2, [r4, #132]
 215 001c 013A     		subs	r2, r2, #1
 216 001e A4F88420 		strh	r2, [r4, #132]	@ movhi
 124:ring_buffer.c **** 
ARM GAS  C:\Users\Gemma\AppData\Local\Temp\ccSJBXUX.s 			page 7


 125:ring_buffer.c ****         // Wrap around if head reached end of buffer
 126:ring_buffer.c ****         if (cb->head >= MAX_BUFFER_SIZE) {
 217              		.loc 1 126 0
 218 0022 3F2B     		cmp	r3, #63
 219 0024 02D9     		bls	.L15
 127:ring_buffer.c ****             cb->head = 0;
 220              		.loc 1 127 0
 221 0026 0023     		movs	r3, #0
 222 0028 A4F88030 		strh	r3, [r4, #128]	@ movhi
 223              	.L15:
 128:ring_buffer.c ****         }
 129:ring_buffer.c ****     }
 130:ring_buffer.c ****     cb->buffer[cb->tail] = value;
 224              		.loc 1 130 0
 225 002c B4F88230 		ldrh	r3, [r4, #130]
 226 0030 24F81350 		strh	r5, [r4, r3, lsl #1]	@ movhi
 131:ring_buffer.c ****     cb->tail++;
 227              		.loc 1 131 0
 228 0034 0133     		adds	r3, r3, #1
 229 0036 9BB2     		uxth	r3, r3
 230 0038 A4F88230 		strh	r3, [r4, #130]	@ movhi
 132:ring_buffer.c ****     cb->count++;
 231              		.loc 1 132 0
 232 003c B4F88420 		ldrh	r2, [r4, #132]
 233 0040 0132     		adds	r2, r2, #1
 234 0042 A4F88420 		strh	r2, [r4, #132]	@ movhi
 133:ring_buffer.c **** 
 134:ring_buffer.c ****     // Wrap around if tail reached end of buffer
 135:ring_buffer.c ****     if (cb->tail >= MAX_BUFFER_SIZE) {
 235              		.loc 1 135 0
 236 0046 3F2B     		cmp	r3, #63
 237 0048 02D9     		bls	.L14
 136:ring_buffer.c ****         cb->tail = 0;
 238              		.loc 1 136 0
 239 004a 0023     		movs	r3, #0
 240 004c A4F88230 		strh	r3, [r4, #130]	@ movhi
 241              	.L14:
 242 0050 38BD     		pop	{r3, r4, r5, pc}
 243              		.cfi_endproc
 244              	.LFE5:
 245              		.size	enqueueCircBuff, .-enqueueCircBuff
 246 0052 00BF     		.section	.text.dequeueCircBuff,"ax",%progbits
 247              		.align	2
 248              		.global	dequeueCircBuff
 249              		.thumb
 250              		.thumb_func
 251              		.type	dequeueCircBuff, %function
 252              	dequeueCircBuff:
 253              	.LFB6:
 137:ring_buffer.c ****     }
 138:ring_buffer.c **** }
 139:ring_buffer.c **** 
 140:ring_buffer.c **** /*******************************************************************************
 141:ring_buffer.c **** * Function Name: dequeueCircBuff
 142:ring_buffer.c **** ********************************************************************************
 143:ring_buffer.c **** *
 144:ring_buffer.c **** * Summary:
ARM GAS  C:\Users\Gemma\AppData\Local\Temp\ccSJBXUX.s 			page 8


 145:ring_buffer.c **** *   Dequeues oldest element from buffer instance. If buffer instance is empty,
 146:ring_buffer.c **** *   returns false.
 147:ring_buffer.c **** *
 148:ring_buffer.c **** * Parameters:  
 149:ring_buffer.c **** *   cb:        input       pointer to the buffer instance
 150:ring_buffer.c **** *   retval:    ouput       pointer to the oldest element
 151:ring_buffer.c **** *
 152:ring_buffer.c **** * Return:
 153:ring_buffer.c **** *   true (read success) / false (read fail)
 154:ring_buffer.c **** *
 155:ring_buffer.c **** *******************************************************************************/
 156:ring_buffer.c **** uint8_t dequeueCircBuff(CircularBuffer *const cb, uint16_t *const retval) {
 254              		.loc 1 156 0
 255              		.cfi_startproc
 256              		@ args = 0, pretend = 0, frame = 0
 257              		@ frame_needed = 0, uses_anonymous_args = 0
 258              	.LVL22:
 259 0000 38B5     		push	{r3, r4, r5, lr}
 260              		.cfi_def_cfa_offset 16
 261              		.cfi_offset 3, -16
 262              		.cfi_offset 4, -12
 263              		.cfi_offset 5, -8
 264              		.cfi_offset 14, -4
 265 0002 0446     		mov	r4, r0
 266 0004 0D46     		mov	r5, r1
 157:ring_buffer.c ****     if (isCircBuffEmpty(cb)) {
 267              		.loc 1 157 0
 268 0006 FFF7FEFF 		bl	isCircBuffEmpty
 269              	.LVL23:
 270 000a B0B9     		cbnz	r0, .L20
 158:ring_buffer.c ****         return 0;
 159:ring_buffer.c ****     }
 160:ring_buffer.c **** 
 161:ring_buffer.c ****     *retval = cb->buffer[cb->head];
 271              		.loc 1 161 0
 272 000c B4F88030 		ldrh	r3, [r4, #128]
 273 0010 34F81330 		ldrh	r3, [r4, r3, lsl #1]
 274 0014 2B80     		strh	r3, [r5]	@ movhi
 162:ring_buffer.c ****     cb->head++;
 275              		.loc 1 162 0
 276 0016 B4F88030 		ldrh	r3, [r4, #128]
 277 001a 0133     		adds	r3, r3, #1
 278 001c 9BB2     		uxth	r3, r3
 279 001e A4F88030 		strh	r3, [r4, #128]	@ movhi
 163:ring_buffer.c ****     cb->count--;
 280              		.loc 1 163 0
 281 0022 B4F88420 		ldrh	r2, [r4, #132]
 282 0026 013A     		subs	r2, r2, #1
 283 0028 A4F88420 		strh	r2, [r4, #132]	@ movhi
 164:ring_buffer.c **** 
 165:ring_buffer.c ****     // Wrap around if head reached end of buffer
 166:ring_buffer.c ****     if (cb->head >= MAX_BUFFER_SIZE) {
 284              		.loc 1 166 0
 285 002c 3F2B     		cmp	r3, #63
 286 002e 06D9     		bls	.L21
 167:ring_buffer.c ****         cb->head = 0;
 287              		.loc 1 167 0
ARM GAS  C:\Users\Gemma\AppData\Local\Temp\ccSJBXUX.s 			page 9


 288 0030 0023     		movs	r3, #0
 289 0032 A4F88030 		strh	r3, [r4, #128]	@ movhi
 168:ring_buffer.c ****     }
 169:ring_buffer.c **** 
 170:ring_buffer.c ****     return 1;
 290              		.loc 1 170 0
 291 0036 0120     		movs	r0, #1
 292 0038 38BD     		pop	{r3, r4, r5, pc}
 293              	.LVL24:
 294              	.L20:
 158:ring_buffer.c ****     }
 295              		.loc 1 158 0
 296 003a 0020     		movs	r0, #0
 297 003c 38BD     		pop	{r3, r4, r5, pc}
 298              	.LVL25:
 299              	.L21:
 300              		.loc 1 170 0
 301 003e 0120     		movs	r0, #1
 171:ring_buffer.c **** }
 302              		.loc 1 171 0
 303 0040 38BD     		pop	{r3, r4, r5, pc}
 304              		.cfi_endproc
 305              	.LFE6:
 306              		.size	dequeueCircBuff, .-dequeueCircBuff
 307 0042 00BF     		.section	.rodata.str1.4,"aMS",%progbits,1
 308              		.align	2
 309              	.LC0:
 310 0000 456D7074 		.ascii	"Empty circular buffer.\000"
 310      79206369 
 310      7263756C 
 310      61722062 
 310      75666665 
 311 0017 00       		.space	1
 312              	.LC1:
 313 0018 5072696E 		.ascii	"Printing circular buffer: \000"
 313      74696E67 
 313      20636972 
 313      63756C61 
 313      72206275 
 314 0033 00       		.space	1
 315              	.LC2:
 316 0034 25642000 		.ascii	"%d \000"
 317              		.text
 318              	.Letext0:
 319              		.file 2 "c:\\program files (x86)\\cypress\\psoc creator\\4.2\\psoc creator\\import\\gnu\\arm\\5.4.
 320              		.file 3 "c:\\program files (x86)\\cypress\\psoc creator\\4.2\\psoc creator\\import\\gnu\\arm\\5.4.
 321              		.file 4 "ring_buffer.h"
 322              		.file 5 "<built-in>"
 323              		.file 6 "c:\\program files (x86)\\cypress\\psoc creator\\4.2\\psoc creator\\import\\gnu\\arm\\5.4.