ARM GAS  C:\Users\Gemma\AppData\Local\Temp\ccQ9mrke.s 			page 1


   1              		.syntax unified
   2              		.cpu cortex-m3
   3              		.fpu softvfp
   4              		.eabi_attribute 20, 1
   5              		.eabi_attribute 21, 1
   6              		.eabi_attribute 23, 3
   7              		.eabi_attribute 24, 1
   8              		.eabi_attribute 25, 1
   9              		.eabi_attribute 26, 1
  10              		.eabi_attribute 30, 6
  11              		.eabi_attribute 34, 1
  12              		.eabi_attribute 18, 4
  13              		.thumb
  14              		.syntax unified
  15              		.file	"main.c"
  16              		.text
  17              	.Ltext0:
  18              		.cfi_sections	.debug_frame
  19              		.global	UART_flag
  20              		.bss
  21              		.type	UART_flag, %object
  22              		.size	UART_flag, 1
  23              	UART_flag:
  24 0000 00       		.space	1
  25              		.global	OneWire_flag
  26              		.type	OneWire_flag, %object
  27              		.size	OneWire_flag, 1
  28              	OneWire_flag:
  29 0001 00       		.space	1
  30              		.global	counter
  31              		.type	counter, %object
  32              		.size	counter, 1
  33              	counter:
  34 0002 00       		.space	1
  35              		.comm	retByte_buffer,9,4
  36              		.global	Vout_sum
  37 0003 00       		.align	2
  38              		.type	Vout_sum, %object
  39              		.size	Vout_sum, 4
  40              	Vout_sum:
  41 0004 00000000 		.space	4
  42              		.global	n
  43              		.align	2
  44              		.type	n, %object
  45              		.size	n, 4
  46              	n:
  47 0008 00000000 		.space	4
  48              		.global	Vout_sum_isr
  49              		.align	2
  50              		.type	Vout_sum_isr, %object
  51              		.size	Vout_sum_isr, 4
  52              	Vout_sum_isr:
  53 000c 00000000 		.space	4
  54              		.global	n_isr
  55              		.align	2
  56              		.type	n_isr, %object
  57              		.size	n_isr, 4
ARM GAS  C:\Users\Gemma\AppData\Local\Temp\ccQ9mrke.s 			page 2


  58              	n_isr:
  59 0010 00000000 		.space	4
  60              		.global	LM35_temp
  61              		.align	2
  62              		.type	LM35_temp, %object
  63              		.size	LM35_temp, 4
  64              	LM35_temp:
  65 0014 00000000 		.space	4
  66              		.comm	Vout_average,4,4
  67              		.global	DS18B20_temp
  68              		.align	2
  69              		.type	DS18B20_temp, %object
  70              		.size	DS18B20_temp, 4
  71              	DS18B20_temp:
  72 0018 00000000 		.space	4
  73              		.section	.rodata
  74              		.align	2
  75              	.LC0:
  76 0000 434F4D20 		.ascii	"COM Port Open\015\012\000"
  76      506F7274 
  76      204F7065 
  76      6E0D0A00 
  77              		.global	__aeabi_i2f
  78              		.global	__aeabi_fdiv
  79              		.global	__aeabi_f2iz
  80              		.global	__aeabi_f2d
  81              		.align	2
  82              	.LC1:
  83 0010 7B202241 		.ascii	"{ \"ADC\": %d , \"LM35\": %.1f , \"DS18B20\": %.1f "
  83      4443223A 
  83      20256420 
  83      2C20224C 
  83      4D333522 
  84 003d 7D0D0A00 		.ascii	"}\015\012\000"
  85              		.section	.text.main,"ax",%progbits
  86              		.align	2
  87              		.global	main
  88              		.thumb
  89              		.thumb_func
  90              		.type	main, %function
  91              	main:
  92              	.LFB64:
  93              		.file 1 "main.c"
   1:main.c        **** /* ================================================================
   2:main.c        ****  *
   3:main.c        ****  * Copyright: Gemma Qin,  Metropolia UAS, Finland, 2024
   4:main.c        ****  *
   5:main.c        ****  * PSoC Design Course 2024: Exercise 5, OneWire
   6:main.c        ****  *
   7:main.c        ****  * Connect DS18B20 temperature sensor to PSoC using OneWire, 
   8:main.c        ****  * and transfer the data to computer via UART. 
   9:main.c        ****  *
  10:main.c        ****  * ================================================================
  11:main.c        **** */
  12:main.c        **** 
  13:main.c        **** #include <project.h>
  14:main.c        **** #include "stdio.h"
ARM GAS  C:\Users\Gemma\AppData\Local\Temp\ccQ9mrke.s 			page 3


  15:main.c        **** 
  16:main.c        **** /* Project Defines */
  17:main.c        **** #define TRANSMIT_BUFFER_SIZE 64
  18:main.c        **** #define CRC_POLYNOMIAL 0x8C         // Equivalent to X^8 + X^5 + X^4 + 1
  19:main.c        **** #define OW_RESPONSE 0
  20:main.c        **** #define RETBYTE_BUFFER_SIZE 9
  21:main.c        **** // From DS18B20 datasheet page 25-26:
  22:main.c        **** #define tLOW1 3
  23:main.c        **** #define rLOW0 70
  24:main.c        **** #define tSLOT 80
  25:main.c        **** #define tCONV 94
  26:main.c        **** #define tRSTL 500
  27:main.c        **** #define tPDLOW 70
  28:main.c        **** #define tRDV 3
  29:main.c        **** 
  30:main.c        **** /* Global variables */
  31:main.c        **** // Flags:
  32:main.c        **** volatile uint8 UART_flag = 0;  
  33:main.c        **** volatile uint8 OneWire_flag = 0;
  34:main.c        **** 
  35:main.c        **** // OneWire related variables:
  36:main.c        **** uint8 counter = 0;
  37:main.c        **** uint8 retByte_buffer[RETBYTE_BUFFER_SIZE];
  38:main.c        **** 
  39:main.c        **** // Running average related variables:
  40:main.c        **** uint32 Vout_sum = 0;
  41:main.c        **** uint32 n = 0;
  42:main.c        **** uint32 Vout_sum_isr = 0;
  43:main.c        **** uint32 n_isr = 0;
  44:main.c        **** 
  45:main.c        **** // Data to be transmitted:
  46:main.c        **** float32 LM35_temp = 0;
  47:main.c        **** float32 Vout_average;
  48:main.c        **** float32 DS18B20_temp = 0;
  49:main.c        **** 
  50:main.c        **** /* Function declarations */
  51:main.c        **** uint8 calculateCRC(uint8 *data, uint8 len);
  52:main.c        **** void OWWriteBit(int bit);
  53:main.c        **** void OWWriteByte(int bit);
  54:main.c        **** uint8 OWReset();
  55:main.c        **** uint8 OWCheckBit();
  56:main.c        **** uint8 OWReadBit();
  57:main.c        **** uint8 OWReadByte(void);
  58:main.c        **** void DS18B20_tempCalc();
  59:main.c        **** void LM35_tempCalc();
  60:main.c        **** 
  61:main.c        **** /* Interrupt service routine declarations */
  62:main.c        **** CY_ISR_PROTO(MyADCIsr);
  63:main.c        **** CY_ISR_PROTO(MyClockIsr);
  64:main.c        **** 
  65:main.c        **** /*******************************************************************************
  66:main.c        **** * Function Name: main
  67:main.c        **** ********************************************************************************
  68:main.c        **** *
  69:main.c        **** * Summary:
  70:main.c        **** *  Initialises components and interrupts.
  71:main.c        **** *  Reads data from DS18B20 temperature sensors using OneWire.
ARM GAS  C:\Users\Gemma\AppData\Local\Temp\ccQ9mrke.s 			page 4


  72:main.c        **** *  Reads data from LM35 temperature sensors.
  73:main.c        **** *  Transmits read data via UART.
  74:main.c        **** *
  75:main.c        **** * Parameters:
  76:main.c        **** *  None.
  77:main.c        **** *
  78:main.c        **** * Return:
  79:main.c        **** *  None.
  80:main.c        **** *
  81:main.c        **** * Remarks: 
  82:main.c        **** *  - Specification: 
  83:main.c        **** *       - UART: 12[6] RX, 12[7] TX, 115200 bps
  84:main.c        **** *       - ADC_Timer: 24-bit (UDB), BUS_CLK: 24 MHz, interrupt: Clock_Isr
  85:main.c        **** *       - ADC_DelSig: 0[0] Vin, 12-bit interrupt: ADC_Isr
  86:main.c        **** *       - OneWire_Timer: 16-bit (Fixed), BUS_CLK: 24 MHz, interrupt: OW_Isr
  87:main.c        **** *       - OneWire: 2[6], Digital input and ouput without hardware, Resistive pull-up - High(1)
  88:main.c        **** *  - Design works without external pull up resistor, internal pull up resistor 
  89:main.c        **** *    of 5 kOhm resolves same matter.
  90:main.c        **** *
  91:main.c        **** *******************************************************************************/
  92:main.c        **** int main()
  93:main.c        **** {  
  94              		.loc 1 93 0
  95              		.cfi_startproc
  96              		@ args = 0, pretend = 0, frame = 88
  97              		@ frame_needed = 1, uses_anonymous_args = 0
  98 0000 F0B5     		push	{r4, r5, r6, r7, lr}
  99              		.cfi_def_cfa_offset 20
 100              		.cfi_offset 4, -20
 101              		.cfi_offset 5, -16
 102              		.cfi_offset 6, -12
 103              		.cfi_offset 7, -8
 104              		.cfi_offset 14, -4
 105 0002 9BB0     		sub	sp, sp, #108
 106              		.cfi_def_cfa_offset 128
 107 0004 04AF     		add	r7, sp, #16
 108              		.cfi_def_cfa 7, 112
  94:main.c        ****     /* Local variables */
  95:main.c        ****     // UART related:
  96:main.c        ****     char transmit_buffer[TRANSMIT_BUFFER_SIZE];
  97:main.c        ****     // OneWire related:
  98:main.c        ****     uint8 status;
  99:main.c        ****     uint8 CRC_valid;
 100:main.c        **** 
 101:main.c        ****     /* Start the components and interrupts */
 102:main.c        ****     UART_Start();
 109              		.loc 1 102 0
 110 0006 FFF7FEFF 		bl	UART_Start
 103:main.c        ****     ADC_DelSig_Start();
 111              		.loc 1 103 0
 112 000a FFF7FEFF 		bl	ADC_DelSig_Start
 104:main.c        ****     ADC_Timer_Start();
 113              		.loc 1 104 0
 114 000e FFF7FEFF 		bl	ADC_Timer_Start
 105:main.c        **** 
 106:main.c        ****     ADC_Isr_StartEx(MyADCIsr);
 115              		.loc 1 106 0
ARM GAS  C:\Users\Gemma\AppData\Local\Temp\ccQ9mrke.s 			page 5


 116 0012 7A48     		ldr	r0, .L15
 117 0014 FFF7FEFF 		bl	ADC_Isr_StartEx
 107:main.c        ****     Clock_Isr_StartEx(MyClockIsr);
 118              		.loc 1 107 0
 119 0018 7948     		ldr	r0, .L15+4
 120 001a FFF7FEFF 		bl	Clock_Isr_StartEx
 108:main.c        **** 
 109:main.c        ****     /* Send message to verify COM port is connected properly */
 110:main.c        ****     UART_PutString("COM Port Open\r\n");
 121              		.loc 1 110 0
 122 001e 7948     		ldr	r0, .L15+8
 123 0020 FFF7FEFF 		bl	UART_PutString
 111:main.c        ****     
 112:main.c        ****     /* Start the ADC conversion */
 113:main.c        ****     ADC_DelSig_StartConvert();
 124              		.loc 1 113 0
 125 0024 FFF7FEFF 		bl	ADC_DelSig_StartConvert
 114:main.c        **** 
 115:main.c        ****     /* Memory function for DS18B2 (Table 6) */ 
 116:main.c        ****     status = OWReset();
 126              		.loc 1 116 0
 127 0028 FFF7FEFF 		bl	OWReset
 128 002c 0346     		mov	r3, r0
 129 002e 87F84B30 		strb	r3, [r7, #75]
 117:main.c        ****     if (status == OW_RESPONSE) {                                            // Presence pulse. 0: t
 130              		.loc 1 117 0
 131 0032 97F84B30 		ldrb	r3, [r7, #75]	@ zero_extendqisi2
 132 0036 002B     		cmp	r3, #0
 133 0038 4DD1     		bne	.L2
 118:main.c        ****         OWWriteByte(0xCC);                                                  // Skip ROM command.
 134              		.loc 1 118 0
 135 003a CC20     		movs	r0, #204
 136 003c FFF7FEFF 		bl	OWWriteByte
 119:main.c        ****         OWWriteByte(0x4E);                                                  // Write Scratchpad com
 137              		.loc 1 119 0
 138 0040 4E20     		movs	r0, #78
 139 0042 FFF7FEFF 		bl	OWWriteByte
 120:main.c        ****         /* Write three bytes to scratchpad (TH, TL, and config). */ 
 121:main.c        ****         OWWriteByte(0);                                                     // TH
 140              		.loc 1 121 0
 141 0046 0020     		movs	r0, #0
 142 0048 FFF7FEFF 		bl	OWWriteByte
 122:main.c        ****         OWWriteByte(0);                                                     // TL
 143              		.loc 1 122 0
 144 004c 0020     		movs	r0, #0
 145 004e FFF7FEFF 		bl	OWWriteByte
 123:main.c        ****         OWWriteByte(0x1F);                                                  // Config
 146              		.loc 1 123 0
 147 0052 1F20     		movs	r0, #31
 148 0054 FFF7FEFF 		bl	OWWriteByte
 124:main.c        ****         
 125:main.c        ****         status = OWReset();
 149              		.loc 1 125 0
 150 0058 FFF7FEFF 		bl	OWReset
 151 005c 0346     		mov	r3, r0
 152 005e 87F84B30 		strb	r3, [r7, #75]
 126:main.c        ****         if (status == OW_RESPONSE) {
ARM GAS  C:\Users\Gemma\AppData\Local\Temp\ccQ9mrke.s 			page 6


 153              		.loc 1 126 0
 154 0062 97F84B30 		ldrb	r3, [r7, #75]	@ zero_extendqisi2
 155 0066 002B     		cmp	r3, #0
 156 0068 35D1     		bne	.L2
 127:main.c        ****             CRC_valid = 0;
 157              		.loc 1 127 0
 158 006a 0023     		movs	r3, #0
 159 006c 87F85730 		strb	r3, [r7, #87]
 128:main.c        ****             OWWriteByte(0xCC);
 160              		.loc 1 128 0
 161 0070 CC20     		movs	r0, #204
 162 0072 FFF7FEFF 		bl	OWWriteByte
 129:main.c        ****             while (!CRC_valid) {
 163              		.loc 1 129 0
 164 0076 28E0     		b	.L3
 165              	.L6:
 166              	.LBB2:
 130:main.c        ****                 /* Read data */ 
 131:main.c        ****                 OWWriteByte(0xBE);                                          // Read Scratchpad comm
 167              		.loc 1 131 0
 168 0078 BE20     		movs	r0, #190
 169 007a FFF7FEFF 		bl	OWWriteByte
 170              	.LBB3:
 132:main.c        ****                 for (int i = 0; i < RETBYTE_BUFFER_SIZE; i++) {             // Read entire scratchp
 171              		.loc 1 132 0
 172 007e 0023     		movs	r3, #0
 173 0080 3B65     		str	r3, [r7, #80]
 174 0082 0BE0     		b	.L4
 175              	.L5:
 133:main.c        ****                     retByte_buffer[i] = OWReadByte();
 176              		.loc 1 133 0 discriminator 3
 177 0084 FFF7FEFF 		bl	OWReadByte
 178 0088 0346     		mov	r3, r0
 179 008a 1946     		mov	r1, r3
 180 008c 5E4A     		ldr	r2, .L15+12
 181 008e 3B6D     		ldr	r3, [r7, #80]
 182 0090 1344     		add	r3, r3, r2
 183 0092 0A46     		mov	r2, r1
 184 0094 1A70     		strb	r2, [r3]
 132:main.c        ****                 for (int i = 0; i < RETBYTE_BUFFER_SIZE; i++) {             // Read entire scratchp
 185              		.loc 1 132 0 discriminator 3
 186 0096 3B6D     		ldr	r3, [r7, #80]
 187 0098 0133     		adds	r3, r3, #1
 188 009a 3B65     		str	r3, [r7, #80]
 189              	.L4:
 132:main.c        ****                 for (int i = 0; i < RETBYTE_BUFFER_SIZE; i++) {             // Read entire scratchp
 190              		.loc 1 132 0 is_stmt 0 discriminator 1
 191 009c 3B6D     		ldr	r3, [r7, #80]
 192 009e 082B     		cmp	r3, #8
 193 00a0 F0DD     		ble	.L5
 194              	.LBE3:
 134:main.c        ****                 }
 135:main.c        ****                 /* CRC check */
 136:main.c        ****                 uint8 receivedCRC = retByte_buffer[8];
 195              		.loc 1 136 0 is_stmt 1
 196 00a2 594B     		ldr	r3, .L15+12
 197 00a4 1B7A     		ldrb	r3, [r3, #8]
ARM GAS  C:\Users\Gemma\AppData\Local\Temp\ccQ9mrke.s 			page 7


 198 00a6 87F84A30 		strb	r3, [r7, #74]
 137:main.c        ****                 uint8 calculatedCRC = calculateCRC(retByte_buffer, 8);      // Calculate CRC for th
 199              		.loc 1 137 0
 200 00aa 0821     		movs	r1, #8
 201 00ac 5648     		ldr	r0, .L15+12
 202 00ae FFF7FEFF 		bl	calculateCRC
 203 00b2 0346     		mov	r3, r0
 204 00b4 87F84930 		strb	r3, [r7, #73]
 138:main.c        ****                 if (receivedCRC == calculatedCRC) {
 205              		.loc 1 138 0
 206 00b8 97F84A20 		ldrb	r2, [r7, #74]	@ zero_extendqisi2
 207 00bc 97F84930 		ldrb	r3, [r7, #73]	@ zero_extendqisi2
 208 00c0 9A42     		cmp	r2, r3
 209 00c2 02D1     		bne	.L3
 139:main.c        ****                     CRC_valid = 1;
 210              		.loc 1 139 0
 211 00c4 0123     		movs	r3, #1
 212 00c6 87F85730 		strb	r3, [r7, #87]
 213              	.L3:
 214              	.LBE2:
 129:main.c        ****                 /* Read data */ 
 215              		.loc 1 129 0
 216 00ca 97F85730 		ldrb	r3, [r7, #87]	@ zero_extendqisi2
 217 00ce 002B     		cmp	r3, #0
 218 00d0 D2D0     		beq	.L6
 140:main.c        ****                 }
 141:main.c        ****             }
 142:main.c        ****                 
 143:main.c        ****             DS18B20_tempCalc(); // Convert and read temperature
 219              		.loc 1 143 0
 220 00d2 FFF7FEFF 		bl	DS18B20_tempCalc
 221              	.L2:
 144:main.c        ****         }
 145:main.c        ****     }
 146:main.c        **** 
 147:main.c        ****     CyGlobalIntEnable; /* Enable global interrupts. */
 222              		.loc 1 147 0
 223              		.syntax unified
 224              	@ 147 "main.c" 1
 225 00d6 62B6     		CPSIE   i
 226              	@ 0 "" 2
 227              		.thumb
 228              		.syntax unified
 229              	.L14:
 148:main.c        **** 
 149:main.c        ****     for(;;)
 150:main.c        ****     {
 151:main.c        ****         /* Read temperature data from DS18B20 */
 152:main.c        ****         if (OneWire_flag) {
 230              		.loc 1 152 0
 231 00d8 4C4B     		ldr	r3, .L15+16
 232 00da 1B78     		ldrb	r3, [r3]
 233 00dc DBB2     		uxtb	r3, r3
 234 00de 002B     		cmp	r3, #0
 235 00e0 5FD0     		beq	.L7
 153:main.c        ****             CyGlobalIntDisable;
 236              		.loc 1 153 0
ARM GAS  C:\Users\Gemma\AppData\Local\Temp\ccQ9mrke.s 			page 8


 237              		.syntax unified
 238              	@ 153 "main.c" 1
 239 00e2 72B6     		CPSID   i
 240              	@ 0 "" 2
 154:main.c        ****             OneWire_SetDriveMode(OneWire_DM_RES_UP);
 241              		.loc 1 154 0
 242              		.thumb
 243              		.syntax unified
 244 00e4 0420     		movs	r0, #4
 245 00e6 FFF7FEFF 		bl	OneWire_SetDriveMode
 155:main.c        ****             
 156:main.c        ****             status = OWReset();
 246              		.loc 1 156 0
 247 00ea FFF7FEFF 		bl	OWReset
 248 00ee 0346     		mov	r3, r0
 249 00f0 87F84B30 		strb	r3, [r7, #75]
 157:main.c        ****             if (status == OW_RESPONSE) {
 250              		.loc 1 157 0
 251 00f4 97F84B30 		ldrb	r3, [r7, #75]	@ zero_extendqisi2
 252 00f8 002B     		cmp	r3, #0
 253 00fa 4ED1     		bne	.L8
 158:main.c        ****                 CRC_valid = 0;
 254              		.loc 1 158 0
 255 00fc 0023     		movs	r3, #0
 256 00fe 87F85730 		strb	r3, [r7, #87]
 159:main.c        ****                 OWWriteByte(0xCC);
 257              		.loc 1 159 0
 258 0102 CC20     		movs	r0, #204
 259 0104 FFF7FEFF 		bl	OWWriteByte
 160:main.c        ****                 while (!CRC_valid) {
 260              		.loc 1 160 0
 261 0108 41E0     		b	.L9
 262              	.L12:
 263              	.LBB4:
 161:main.c        ****                     /* Read data */
 162:main.c        ****                     OWWriteByte(0xBE);
 264              		.loc 1 162 0
 265 010a BE20     		movs	r0, #190
 266 010c FFF7FEFF 		bl	OWWriteByte
 267              	.LBB5:
 163:main.c        ****                     for (int i = 0; i < RETBYTE_BUFFER_SIZE; i++) {
 268              		.loc 1 163 0
 269 0110 0023     		movs	r3, #0
 270 0112 FB64     		str	r3, [r7, #76]
 271 0114 0BE0     		b	.L10
 272              	.L11:
 164:main.c        ****                         retByte_buffer[i] = OWReadByte();
 273              		.loc 1 164 0 discriminator 3
 274 0116 FFF7FEFF 		bl	OWReadByte
 275 011a 0346     		mov	r3, r0
 276 011c 1946     		mov	r1, r3
 277 011e 3A4A     		ldr	r2, .L15+12
 278 0120 FB6C     		ldr	r3, [r7, #76]
 279 0122 1344     		add	r3, r3, r2
 280 0124 0A46     		mov	r2, r1
 281 0126 1A70     		strb	r2, [r3]
 163:main.c        ****                     for (int i = 0; i < RETBYTE_BUFFER_SIZE; i++) {
ARM GAS  C:\Users\Gemma\AppData\Local\Temp\ccQ9mrke.s 			page 9


 282              		.loc 1 163 0 discriminator 3
 283 0128 FB6C     		ldr	r3, [r7, #76]
 284 012a 0133     		adds	r3, r3, #1
 285 012c FB64     		str	r3, [r7, #76]
 286              	.L10:
 163:main.c        ****                     for (int i = 0; i < RETBYTE_BUFFER_SIZE; i++) {
 287              		.loc 1 163 0 is_stmt 0 discriminator 1
 288 012e FB6C     		ldr	r3, [r7, #76]
 289 0130 082B     		cmp	r3, #8
 290 0132 F0DD     		ble	.L11
 291              	.LBE5:
 165:main.c        ****                     }
 166:main.c        ****                     /* CRC check */
 167:main.c        ****                     uint8 receivedCRC = retByte_buffer[8];
 292              		.loc 1 167 0 is_stmt 1
 293 0134 344B     		ldr	r3, .L15+12
 294 0136 1B7A     		ldrb	r3, [r3, #8]
 295 0138 87F84830 		strb	r3, [r7, #72]
 168:main.c        ****                     uint8 calculatedCRC = calculateCRC(retByte_buffer, 8); // Calculate CRC for the
 296              		.loc 1 168 0
 297 013c 0821     		movs	r1, #8
 298 013e 3248     		ldr	r0, .L15+12
 299 0140 FFF7FEFF 		bl	calculateCRC
 300 0144 0346     		mov	r3, r0
 301 0146 87F84730 		strb	r3, [r7, #71]
 169:main.c        ****                     if (receivedCRC == calculatedCRC) {
 302              		.loc 1 169 0
 303 014a 97F84820 		ldrb	r2, [r7, #72]	@ zero_extendqisi2
 304 014e 97F84730 		ldrb	r3, [r7, #71]	@ zero_extendqisi2
 305 0152 9A42     		cmp	r2, r3
 306 0154 1BD1     		bne	.L9
 307              	.LBB6:
 170:main.c        ****                         CRC_valid = 1;
 308              		.loc 1 170 0
 309 0156 0123     		movs	r3, #1
 310 0158 87F85730 		strb	r3, [r7, #87]
 171:main.c        ****                         /* Extract temperature data and convert */
 172:main.c        ****                         int16 tresult = (int16)retByte_buffer[1] << 8 | retByte_buffer[0];
 311              		.loc 1 172 0
 312 015c 2A4B     		ldr	r3, .L15+12
 313 015e 5B78     		ldrb	r3, [r3, #1]	@ zero_extendqisi2
 314 0160 1B02     		lsls	r3, r3, #8
 315 0162 1AB2     		sxth	r2, r3
 316 0164 284B     		ldr	r3, .L15+12
 317 0166 1B78     		ldrb	r3, [r3]	@ zero_extendqisi2
 318 0168 1BB2     		sxth	r3, r3
 319 016a 1343     		orrs	r3, r3, r2
 320 016c A7F84430 		strh	r3, [r7, #68]	@ movhi
 173:main.c        ****                         DS18B20_temp = (float32)tresult / 16;
 321              		.loc 1 173 0
 322 0170 B7F94430 		ldrsh	r3, [r7, #68]
 323 0174 1846     		mov	r0, r3
 324 0176 FFF7FEFF 		bl	__aeabi_i2f
 325 017a 0346     		mov	r3, r0
 326 017c 4FF08341 		mov	r1, #1098907648
 327 0180 1846     		mov	r0, r3
 328 0182 FFF7FEFF 		bl	__aeabi_fdiv
ARM GAS  C:\Users\Gemma\AppData\Local\Temp\ccQ9mrke.s 			page 10


 329 0186 0346     		mov	r3, r0
 330 0188 1A46     		mov	r2, r3
 331 018a 214B     		ldr	r3, .L15+20
 332 018c 1A60     		str	r2, [r3]	@ float
 333              	.L9:
 334              	.LBE6:
 335              	.LBE4:
 160:main.c        ****                     /* Read data */
 336              		.loc 1 160 0
 337 018e 97F85730 		ldrb	r3, [r7, #87]	@ zero_extendqisi2
 338 0192 002B     		cmp	r3, #0
 339 0194 B9D0     		beq	.L12
 174:main.c        ****                     }
 175:main.c        ****                 }
 176:main.c        ****                 
 177:main.c        ****                 DS18B20_tempCalc(); // Convert and read temperature
 340              		.loc 1 177 0
 341 0196 FFF7FEFF 		bl	DS18B20_tempCalc
 342              	.L8:
 178:main.c        ****             }
 179:main.c        ****             CyGlobalIntEnable;
 343              		.loc 1 179 0
 344              		.syntax unified
 345              	@ 179 "main.c" 1
 346 019a 62B6     		CPSIE   i
 347              	@ 0 "" 2
 180:main.c        ****             OneWire_flag = 0;
 348              		.loc 1 180 0
 349              		.thumb
 350              		.syntax unified
 351 019c 1B4B     		ldr	r3, .L15+16
 352 019e 0022     		movs	r2, #0
 353 01a0 1A70     		strb	r2, [r3]
 354              	.L7:
 181:main.c        ****         }
 182:main.c        **** 
 183:main.c        ****         /* Calculate LM35 temperature and sends data to UART */
 184:main.c        ****         if (UART_flag) {
 355              		.loc 1 184 0
 356 01a2 1C4B     		ldr	r3, .L15+24
 357 01a4 1B78     		ldrb	r3, [r3]
 358 01a6 DBB2     		uxtb	r3, r3
 359 01a8 002B     		cmp	r3, #0
 360 01aa 95D0     		beq	.L14
 185:main.c        **** 
 186:main.c        ****             /* Calculate Vout running average */
 187:main.c        ****             LM35_tempCalc();
 361              		.loc 1 187 0
 362 01ac FFF7FEFF 		bl	LM35_tempCalc
 188:main.c        ****             
 189:main.c        ****             /* Format data */ 
 190:main.c        ****             sprintf(transmit_buffer, 
 363              		.loc 1 190 0
 364 01b0 194B     		ldr	r3, .L15+28
 365 01b2 1B68     		ldr	r3, [r3]	@ float
 366 01b4 1846     		mov	r0, r3
 367 01b6 FFF7FEFF 		bl	__aeabi_f2iz
ARM GAS  C:\Users\Gemma\AppData\Local\Temp\ccQ9mrke.s 			page 11


 368 01ba 0646     		mov	r6, r0
 369 01bc 174B     		ldr	r3, .L15+32
 370 01be 1B68     		ldr	r3, [r3]	@ float
 371 01c0 1846     		mov	r0, r3
 372 01c2 FFF7FEFF 		bl	__aeabi_f2d
 373 01c6 0446     		mov	r4, r0
 374 01c8 0D46     		mov	r5, r1
 375 01ca 114B     		ldr	r3, .L15+20
 376 01cc 1B68     		ldr	r3, [r3]	@ float
 377 01ce 1846     		mov	r0, r3
 378 01d0 FFF7FEFF 		bl	__aeabi_f2d
 379 01d4 0246     		mov	r2, r0
 380 01d6 0B46     		mov	r3, r1
 381 01d8 381D     		adds	r0, r7, #4
 382 01da CDE90223 		strd	r2, [sp, #8]
 383 01de CDE90045 		strd	r4, [sp]
 384 01e2 3246     		mov	r2, r6
 385 01e4 0E49     		ldr	r1, .L15+36
 386 01e6 FFF7FEFF 		bl	sprintf
 191:main.c        ****                     "{ \"ADC\": %d , \"LM35\": %.1f , \"DS18B20\": %.1f }\r\n", 
 192:main.c        ****                     (int)Vout_average, LM35_temp, DS18B20_temp);
 193:main.c        ****           
 194:main.c        ****             /* Send data to UART */
 195:main.c        ****             UART_PutString(transmit_buffer);
 387              		.loc 1 195 0
 388 01ea 3B1D     		adds	r3, r7, #4
 389 01ec 1846     		mov	r0, r3
 390 01ee FFF7FEFF 		bl	UART_PutString
 196:main.c        ****             
 197:main.c        ****             UART_flag = 0;  
 391              		.loc 1 197 0
 392 01f2 084B     		ldr	r3, .L15+24
 393 01f4 0022     		movs	r2, #0
 394 01f6 1A70     		strb	r2, [r3]
 198:main.c        ****         }
 199:main.c        ****     }
 395              		.loc 1 199 0
 396 01f8 6EE7     		b	.L14
 397              	.L16:
 398 01fa 00BF     		.align	2
 399              	.L15:
 400 01fc 00000000 		.word	MyADCIsr
 401 0200 00000000 		.word	MyClockIsr
 402 0204 00000000 		.word	.LC0
 403 0208 00000000 		.word	retByte_buffer
 404 020c 00000000 		.word	OneWire_flag
 405 0210 00000000 		.word	DS18B20_temp
 406 0214 00000000 		.word	UART_flag
 407 0218 00000000 		.word	Vout_average
 408 021c 00000000 		.word	LM35_temp
 409 0220 10000000 		.word	.LC1
 410              		.cfi_endproc
 411              	.LFE64:
 412              		.size	main, .-main
 413              		.section	.text.calculateCRC,"ax",%progbits
 414              		.align	2
 415              		.global	calculateCRC
ARM GAS  C:\Users\Gemma\AppData\Local\Temp\ccQ9mrke.s 			page 12


 416              		.thumb
 417              		.thumb_func
 418              		.type	calculateCRC, %function
 419              	calculateCRC:
 420              	.LFB65:
 200:main.c        **** }
 201:main.c        **** 
 202:main.c        **** /*******************************************************************************
 203:main.c        **** * Function Name: calculateCRC
 204:main.c        **** ********************************************************************************
 205:main.c        **** *
 206:main.c        **** * Summary:
 207:main.c        **** *  Calculates CRC value of received data.
 208:main.c        **** *
 209:main.c        **** * Parameters:
 210:main.c        **** *  uint8 *data: pointer to data
 211:main.c        **** *  uint8 len: length of data
 212:main.c        **** *
 213:main.c        **** * Return:
 214:main.c        **** *  uint8: returns CRC value
 215:main.c        **** *
 216:main.c        **** *******************************************************************************/
 217:main.c        **** uint8 calculateCRC(uint8 *data, uint8 len) {
 421              		.loc 1 217 0
 422              		.cfi_startproc
 423              		@ args = 0, pretend = 0, frame = 24
 424              		@ frame_needed = 1, uses_anonymous_args = 0
 425              		@ link register save eliminated.
 426 0000 80B4     		push	{r7}
 427              		.cfi_def_cfa_offset 4
 428              		.cfi_offset 7, -4
 429 0002 87B0     		sub	sp, sp, #28
 430              		.cfi_def_cfa_offset 32
 431 0004 00AF     		add	r7, sp, #0
 432              		.cfi_def_cfa_register 7
 433 0006 7860     		str	r0, [r7, #4]
 434 0008 0B46     		mov	r3, r1
 435 000a FB70     		strb	r3, [r7, #3]
 218:main.c        ****     uint8 crc = 0;
 436              		.loc 1 218 0
 437 000c 0023     		movs	r3, #0
 438 000e FB75     		strb	r3, [r7, #23]
 439              	.LBB7:
 219:main.c        ****     for (int i = 0; i < len; i++) {
 440              		.loc 1 219 0
 441 0010 0023     		movs	r3, #0
 442 0012 3B61     		str	r3, [r7, #16]
 443 0014 22E0     		b	.L18
 444              	.L23:
 220:main.c        ****         crc ^= data[i];
 445              		.loc 1 220 0
 446 0016 3B69     		ldr	r3, [r7, #16]
 447 0018 7A68     		ldr	r2, [r7, #4]
 448 001a 1344     		add	r3, r3, r2
 449 001c 1A78     		ldrb	r2, [r3]	@ zero_extendqisi2
 450 001e FB7D     		ldrb	r3, [r7, #23]
 451 0020 5340     		eors	r3, r3, r2
ARM GAS  C:\Users\Gemma\AppData\Local\Temp\ccQ9mrke.s 			page 13


 452 0022 FB75     		strb	r3, [r7, #23]
 453              	.LBB8:
 221:main.c        ****         for (int j = 0; j < 8; j++) {
 454              		.loc 1 221 0
 455 0024 0023     		movs	r3, #0
 456 0026 FB60     		str	r3, [r7, #12]
 457 0028 12E0     		b	.L19
 458              	.L22:
 222:main.c        ****             if (crc & 0x01) {
 459              		.loc 1 222 0
 460 002a FB7D     		ldrb	r3, [r7, #23]	@ zero_extendqisi2
 461 002c 03F00103 		and	r3, r3, #1
 462 0030 002B     		cmp	r3, #0
 463 0032 07D0     		beq	.L20
 223:main.c        ****                 crc = (crc >> 1) ^ CRC_POLYNOMIAL;
 464              		.loc 1 223 0
 465 0034 FB7D     		ldrb	r3, [r7, #23]	@ zero_extendqisi2
 466 0036 5B08     		lsrs	r3, r3, #1
 467 0038 DBB2     		uxtb	r3, r3
 468 003a 83F07303 		eor	r3, r3, #115
 469 003e DB43     		mvns	r3, r3
 470 0040 FB75     		strb	r3, [r7, #23]
 471 0042 02E0     		b	.L21
 472              	.L20:
 224:main.c        ****             } else {
 225:main.c        ****                 crc >>= 1;
 473              		.loc 1 225 0
 474 0044 FB7D     		ldrb	r3, [r7, #23]	@ zero_extendqisi2
 475 0046 5B08     		lsrs	r3, r3, #1
 476 0048 FB75     		strb	r3, [r7, #23]
 477              	.L21:
 221:main.c        ****             if (crc & 0x01) {
 478              		.loc 1 221 0 discriminator 2
 479 004a FB68     		ldr	r3, [r7, #12]
 480 004c 0133     		adds	r3, r3, #1
 481 004e FB60     		str	r3, [r7, #12]
 482              	.L19:
 221:main.c        ****             if (crc & 0x01) {
 483              		.loc 1 221 0 is_stmt 0 discriminator 1
 484 0050 FB68     		ldr	r3, [r7, #12]
 485 0052 072B     		cmp	r3, #7
 486 0054 E9DD     		ble	.L22
 487              	.LBE8:
 219:main.c        ****         crc ^= data[i];
 488              		.loc 1 219 0 is_stmt 1 discriminator 2
 489 0056 3B69     		ldr	r3, [r7, #16]
 490 0058 0133     		adds	r3, r3, #1
 491 005a 3B61     		str	r3, [r7, #16]
 492              	.L18:
 219:main.c        ****         crc ^= data[i];
 493              		.loc 1 219 0 is_stmt 0 discriminator 1
 494 005c FA78     		ldrb	r2, [r7, #3]	@ zero_extendqisi2
 495 005e 3B69     		ldr	r3, [r7, #16]
 496 0060 9A42     		cmp	r2, r3
 497 0062 D8DC     		bgt	.L23
 498              	.LBE7:
 226:main.c        ****             }
ARM GAS  C:\Users\Gemma\AppData\Local\Temp\ccQ9mrke.s 			page 14


 227:main.c        ****         }
 228:main.c        ****     }
 229:main.c        ****     return crc;
 499              		.loc 1 229 0 is_stmt 1
 500 0064 FB7D     		ldrb	r3, [r7, #23]	@ zero_extendqisi2
 230:main.c        **** }
 501              		.loc 1 230 0
 502 0066 1846     		mov	r0, r3
 503 0068 1C37     		adds	r7, r7, #28
 504              		.cfi_def_cfa_offset 4
 505 006a BD46     		mov	sp, r7
 506              		.cfi_def_cfa_register 13
 507              		@ sp needed
 508 006c 80BC     		pop	{r7}
 509              		.cfi_restore 7
 510              		.cfi_def_cfa_offset 0
 511 006e 7047     		bx	lr
 512              		.cfi_endproc
 513              	.LFE65:
 514              		.size	calculateCRC, .-calculateCRC
 515              		.section	.text.OWWriteBit,"ax",%progbits
 516              		.align	2
 517              		.global	OWWriteBit
 518              		.thumb
 519              		.thumb_func
 520              		.type	OWWriteBit, %function
 521              	OWWriteBit:
 522              	.LFB66:
 231:main.c        **** 
 232:main.c        **** /*******************************************************************************
 233:main.c        **** * Function Name: OWWriteBit
 234:main.c        **** ********************************************************************************
 235:main.c        **** *
 236:main.c        **** * Summary:
 237:main.c        **** *  Function to send 1 or 0 bit. 
 238:main.c        **** *
 239:main.c        **** * Parameters:
 240:main.c        **** *  int bit: 0 or 1
 241:main.c        **** *
 242:main.c        **** * Return:
 243:main.c        **** *  None.
 244:main.c        **** *
 245:main.c        **** *******************************************************************************/
 246:main.c        **** void OWWriteBit(int bit) {   // Write 1 or 0
 523              		.loc 1 246 0
 524              		.cfi_startproc
 525              		@ args = 0, pretend = 0, frame = 8
 526              		@ frame_needed = 1, uses_anonymous_args = 0
 527 0000 80B5     		push	{r7, lr}
 528              		.cfi_def_cfa_offset 8
 529              		.cfi_offset 7, -8
 530              		.cfi_offset 14, -4
 531 0002 82B0     		sub	sp, sp, #8
 532              		.cfi_def_cfa_offset 16
 533 0004 00AF     		add	r7, sp, #0
 534              		.cfi_def_cfa_register 7
 535 0006 7860     		str	r0, [r7, #4]
ARM GAS  C:\Users\Gemma\AppData\Local\Temp\ccQ9mrke.s 			page 15


 247:main.c        ****     OneWire_Write(0);
 536              		.loc 1 247 0
 537 0008 0020     		movs	r0, #0
 538 000a FFF7FEFF 		bl	OneWire_Write
 248:main.c        ****     if (bit) {
 539              		.loc 1 248 0
 540 000e 7B68     		ldr	r3, [r7, #4]
 541 0010 002B     		cmp	r3, #0
 542 0012 09D0     		beq	.L26
 249:main.c        ****         // Write '1' bit
 250:main.c        ****         CyDelayUs(tLOW1);
 543              		.loc 1 250 0
 544 0014 0320     		movs	r0, #3
 545 0016 FFF7FEFF 		bl	CyDelayUs
 251:main.c        ****         OneWire_Write(1);
 546              		.loc 1 251 0
 547 001a 0120     		movs	r0, #1
 548 001c FFF7FEFF 		bl	OneWire_Write
 252:main.c        ****         CyDelayUs(tSLOT - tLOW1);
 549              		.loc 1 252 0
 550 0020 4D20     		movs	r0, #77
 551 0022 FFF7FEFF 		bl	CyDelayUs
 253:main.c        ****     } else {
 254:main.c        ****         // Write '0' bit
 255:main.c        ****         CyDelayUs(rLOW0);
 256:main.c        ****         OneWire_Write(1);
 257:main.c        ****         CyDelayUs(tSLOT - rLOW0);
 258:main.c        ****     }
 259:main.c        **** }
 552              		.loc 1 259 0
 553 0026 08E0     		b	.L28
 554              	.L26:
 255:main.c        ****         OneWire_Write(1);
 555              		.loc 1 255 0
 556 0028 4620     		movs	r0, #70
 557 002a FFF7FEFF 		bl	CyDelayUs
 256:main.c        ****         CyDelayUs(tSLOT - rLOW0);
 558              		.loc 1 256 0
 559 002e 0120     		movs	r0, #1
 560 0030 FFF7FEFF 		bl	OneWire_Write
 257:main.c        ****     }
 561              		.loc 1 257 0
 562 0034 0A20     		movs	r0, #10
 563 0036 FFF7FEFF 		bl	CyDelayUs
 564              	.L28:
 565              		.loc 1 259 0
 566 003a 00BF     		nop
 567 003c 0837     		adds	r7, r7, #8
 568              		.cfi_def_cfa_offset 8
 569 003e BD46     		mov	sp, r7
 570              		.cfi_def_cfa_register 13
 571              		@ sp needed
 572 0040 80BD     		pop	{r7, pc}
 573              		.cfi_endproc
 574              	.LFE66:
 575              		.size	OWWriteBit, .-OWWriteBit
 576 0042 00BF     		.section	.text.OWWriteByte,"ax",%progbits
ARM GAS  C:\Users\Gemma\AppData\Local\Temp\ccQ9mrke.s 			page 16


 577              		.align	2
 578              		.global	OWWriteByte
 579              		.thumb
 580              		.thumb_func
 581              		.type	OWWriteByte, %function
 582              	OWWriteByte:
 583              	.LFB67:
 260:main.c        **** 
 261:main.c        **** /*******************************************************************************
 262:main.c        **** * Function Name: OWWriteByte
 263:main.c        **** ********************************************************************************
 264:main.c        **** *
 265:main.c        **** * Summary:
 266:main.c        **** *  Sends one byte by calling OWWriteBit().
 267:main.c        **** *
 268:main.c        **** * Parameters:
 269:main.c        **** *  int data: data to be sent.
 270:main.c        **** *
 271:main.c        **** * Return:
 272:main.c        **** *  None.
 273:main.c        **** *
 274:main.c        **** *******************************************************************************/
 275:main.c        **** void OWWriteByte(int data) {
 584              		.loc 1 275 0
 585              		.cfi_startproc
 586              		@ args = 0, pretend = 0, frame = 16
 587              		@ frame_needed = 1, uses_anonymous_args = 0
 588 0000 80B5     		push	{r7, lr}
 589              		.cfi_def_cfa_offset 8
 590              		.cfi_offset 7, -8
 591              		.cfi_offset 14, -4
 592 0002 84B0     		sub	sp, sp, #16
 593              		.cfi_def_cfa_offset 24
 594 0004 00AF     		add	r7, sp, #0
 595              		.cfi_def_cfa_register 7
 596 0006 7860     		str	r0, [r7, #4]
 597              	.LBB9:
 276:main.c        ****     /* Loop to write each bit in the byte, LS-bit first. */
 277:main.c        ****     for (int loop = 0; loop < 8; loop++)
 598              		.loc 1 277 0
 599 0008 0023     		movs	r3, #0
 600 000a FB60     		str	r3, [r7, #12]
 601 000c 0BE0     		b	.L30
 602              	.L31:
 278:main.c        ****     {
 279:main.c        ****         OWWriteBit(data & 0x01);
 603              		.loc 1 279 0 discriminator 3
 604 000e 7B68     		ldr	r3, [r7, #4]
 605 0010 03F00103 		and	r3, r3, #1
 606 0014 1846     		mov	r0, r3
 607 0016 FFF7FEFF 		bl	OWWriteBit
 280:main.c        ****         /* Shift the data byte for the next bit. */
 281:main.c        ****         data >>= 1;
 608              		.loc 1 281 0 discriminator 3
 609 001a 7B68     		ldr	r3, [r7, #4]
 610 001c 5B10     		asrs	r3, r3, #1
 611 001e 7B60     		str	r3, [r7, #4]
ARM GAS  C:\Users\Gemma\AppData\Local\Temp\ccQ9mrke.s 			page 17


 277:main.c        ****     {
 612              		.loc 1 277 0 discriminator 3
 613 0020 FB68     		ldr	r3, [r7, #12]
 614 0022 0133     		adds	r3, r3, #1
 615 0024 FB60     		str	r3, [r7, #12]
 616              	.L30:
 277:main.c        ****     {
 617              		.loc 1 277 0 is_stmt 0 discriminator 1
 618 0026 FB68     		ldr	r3, [r7, #12]
 619 0028 072B     		cmp	r3, #7
 620 002a F0DD     		ble	.L31
 621              	.LBE9:
 282:main.c        ****     }
 283:main.c        **** }
 622              		.loc 1 283 0 is_stmt 1
 623 002c 00BF     		nop
 624 002e 1037     		adds	r7, r7, #16
 625              		.cfi_def_cfa_offset 8
 626 0030 BD46     		mov	sp, r7
 627              		.cfi_def_cfa_register 13
 628              		@ sp needed
 629 0032 80BD     		pop	{r7, pc}
 630              		.cfi_endproc
 631              	.LFE67:
 632              		.size	OWWriteByte, .-OWWriteByte
 633              		.section	.text.OWReset,"ax",%progbits
 634              		.align	2
 635              		.global	OWReset
 636              		.thumb
 637              		.thumb_func
 638              		.type	OWReset, %function
 639              	OWReset:
 640              	.LFB68:
 284:main.c        **** 
 285:main.c        **** /*******************************************************************************
 286:main.c        **** * Function Name: OWReset
 287:main.c        **** ********************************************************************************
 288:main.c        **** *
 289:main.c        **** * Summary:
 290:main.c        **** *  Resets line. 
 291:main.c        **** *
 292:main.c        **** * Parameters:
 293:main.c        **** *  None.
 294:main.c        **** *
 295:main.c        **** * Return:
 296:main.c        **** *  None.
 297:main.c        **** *
 298:main.c        **** *******************************************************************************/
 299:main.c        **** uint8 OWReset() {
 641              		.loc 1 299 0
 642              		.cfi_startproc
 643              		@ args = 0, pretend = 0, frame = 8
 644              		@ frame_needed = 1, uses_anonymous_args = 0
 645 0000 80B5     		push	{r7, lr}
 646              		.cfi_def_cfa_offset 8
 647              		.cfi_offset 7, -8
 648              		.cfi_offset 14, -4
ARM GAS  C:\Users\Gemma\AppData\Local\Temp\ccQ9mrke.s 			page 18


 649 0002 82B0     		sub	sp, sp, #8
 650              		.cfi_def_cfa_offset 16
 651 0004 00AF     		add	r7, sp, #0
 652              		.cfi_def_cfa_register 7
 300:main.c        ****     uint8 retval;
 301:main.c        ****     
 302:main.c        ****     OneWire_Write(1);
 653              		.loc 1 302 0
 654 0006 0120     		movs	r0, #1
 655 0008 FFF7FEFF 		bl	OneWire_Write
 303:main.c        ****     CyDelayUs(100);             // Make sure it idled for a while.
 656              		.loc 1 303 0
 657 000c 6420     		movs	r0, #100
 658 000e FFF7FEFF 		bl	CyDelayUs
 304:main.c        ****     OneWire_Write(0);   
 659              		.loc 1 304 0
 660 0012 0020     		movs	r0, #0
 661 0014 FFF7FEFF 		bl	OneWire_Write
 305:main.c        ****     CyDelayUs(tRSTL);           // tRSTL: 500 (based on Note 13)
 662              		.loc 1 305 0
 663 0018 4FF4FA70 		mov	r0, #500
 664 001c FFF7FEFF 		bl	CyDelayUs
 306:main.c        ****     OneWire_Write(1);
 665              		.loc 1 306 0
 666 0020 0120     		movs	r0, #1
 667 0022 FFF7FEFF 		bl	OneWire_Write
 307:main.c        ****     CyDelayUs(tPDLOW);          // tPDLOW: 70
 668              		.loc 1 307 0
 669 0026 4620     		movs	r0, #70
 670 0028 FFF7FEFF 		bl	CyDelayUs
 308:main.c        ****     retval = OWCheckBit();
 671              		.loc 1 308 0
 672 002c FFF7FEFF 		bl	OWCheckBit
 673 0030 0346     		mov	r3, r0
 674 0032 FB71     		strb	r3, [r7, #7]
 309:main.c        ****     CyDelayUs(500 - tPDLOW);    // Make sure we are out of tPDLOW: 500 - tPDLOW
 675              		.loc 1 309 0
 676 0034 4FF4D770 		mov	r0, #430
 677 0038 FFF7FEFF 		bl	CyDelayUs
 310:main.c        **** 
 311:main.c        ****     return retval;
 678              		.loc 1 311 0
 679 003c FB79     		ldrb	r3, [r7, #7]	@ zero_extendqisi2
 312:main.c        **** }
 680              		.loc 1 312 0
 681 003e 1846     		mov	r0, r3
 682 0040 0837     		adds	r7, r7, #8
 683              		.cfi_def_cfa_offset 8
 684 0042 BD46     		mov	sp, r7
 685              		.cfi_def_cfa_register 13
 686              		@ sp needed
 687 0044 80BD     		pop	{r7, pc}
 688              		.cfi_endproc
 689              	.LFE68:
 690              		.size	OWReset, .-OWReset
 691 0046 00BF     		.section	.text.OWCheckBit,"ax",%progbits
 692              		.align	2
ARM GAS  C:\Users\Gemma\AppData\Local\Temp\ccQ9mrke.s 			page 19


 693              		.global	OWCheckBit
 694              		.thumb
 695              		.thumb_func
 696              		.type	OWCheckBit, %function
 697              	OWCheckBit:
 698              	.LFB69:
 313:main.c        **** /*******************************************************************************
 314:main.c        **** * Function Name: OWCheckBit
 315:main.c        **** ********************************************************************************
 316:main.c        **** *
 317:main.c        **** * Summary:
 318:main.c        **** *  Checks bit by calling OneWire_Read().
 319:main.c        **** *
 320:main.c        **** * Parameters:
 321:main.c        **** *  None.
 322:main.c        **** *
 323:main.c        **** * Return:
 324:main.c        **** *  None.
 325:main.c        **** *
 326:main.c        **** *******************************************************************************/
 327:main.c        **** uint8 OWCheckBit() {
 699              		.loc 1 327 0
 700              		.cfi_startproc
 701              		@ args = 0, pretend = 0, frame = 0
 702              		@ frame_needed = 1, uses_anonymous_args = 0
 703 0000 80B5     		push	{r7, lr}
 704              		.cfi_def_cfa_offset 8
 705              		.cfi_offset 7, -8
 706              		.cfi_offset 14, -4
 707 0002 00AF     		add	r7, sp, #0
 708              		.cfi_def_cfa_register 7
 328:main.c        ****     return OneWire_Read();
 709              		.loc 1 328 0
 710 0004 FFF7FEFF 		bl	OneWire_Read
 711 0008 0346     		mov	r3, r0
 329:main.c        **** }
 712              		.loc 1 329 0
 713 000a 1846     		mov	r0, r3
 714 000c 80BD     		pop	{r7, pc}
 715              		.cfi_endproc
 716              	.LFE69:
 717              		.size	OWCheckBit, .-OWCheckBit
 718 000e 00BF     		.section	.text.OWReadBit,"ax",%progbits
 719              		.align	2
 720              		.global	OWReadBit
 721              		.thumb
 722              		.thumb_func
 723              		.type	OWReadBit, %function
 724              	OWReadBit:
 725              	.LFB70:
 330:main.c        **** 
 331:main.c        **** /*******************************************************************************
 332:main.c        **** * Function Name: OWReadBit
 333:main.c        **** ********************************************************************************
 334:main.c        **** *
 335:main.c        **** * Summary:
 336:main.c        **** *  Reads one bit. 
ARM GAS  C:\Users\Gemma\AppData\Local\Temp\ccQ9mrke.s 			page 20


 337:main.c        **** *
 338:main.c        **** * Parameters:
 339:main.c        **** *  None.
 340:main.c        **** *
 341:main.c        **** * Return:
 342:main.c        **** *  uint8: return value of OneWire_Read().
 343:main.c        **** *
 344:main.c        **** *******************************************************************************/
 345:main.c        **** uint8 OWReadBit() {
 726              		.loc 1 345 0
 727              		.cfi_startproc
 728              		@ args = 0, pretend = 0, frame = 8
 729              		@ frame_needed = 1, uses_anonymous_args = 0
 730 0000 80B5     		push	{r7, lr}
 731              		.cfi_def_cfa_offset 8
 732              		.cfi_offset 7, -8
 733              		.cfi_offset 14, -4
 734 0002 82B0     		sub	sp, sp, #8
 735              		.cfi_def_cfa_offset 16
 736 0004 00AF     		add	r7, sp, #0
 737              		.cfi_def_cfa_register 7
 346:main.c        ****     uint8 retval;
 347:main.c        **** 
 348:main.c        ****     OneWire_Write(0);
 738              		.loc 1 348 0
 739 0006 0020     		movs	r0, #0
 740 0008 FFF7FEFF 		bl	OneWire_Write
 349:main.c        ****     CyDelayUs(tRDV);                    // tRDV: 3
 741              		.loc 1 349 0
 742 000c 0320     		movs	r0, #3
 743 000e FFF7FEFF 		bl	CyDelayUs
 350:main.c        ****     OneWire_Write(1);
 744              		.loc 1 350 0
 745 0012 0120     		movs	r0, #1
 746 0014 FFF7FEFF 		bl	OneWire_Write
 351:main.c        ****     CyDelayUs(12);                      // Extra time: 12
 747              		.loc 1 351 0
 748 0018 0C20     		movs	r0, #12
 749 001a FFF7FEFF 		bl	CyDelayUs
 352:main.c        ****     retval = OWCheckBit();
 750              		.loc 1 352 0
 751 001e FFF7FEFF 		bl	OWCheckBit
 752 0022 0346     		mov	r3, r0
 753 0024 FB71     		strb	r3, [r7, #7]
 353:main.c        ****     CyDelayUs(tSLOT - tRDV - 12);       // Remainder of tSLOT: 80 - 3 - 12
 754              		.loc 1 353 0
 755 0026 4120     		movs	r0, #65
 756 0028 FFF7FEFF 		bl	CyDelayUs
 354:main.c        **** 
 355:main.c        ****     return retval;
 757              		.loc 1 355 0
 758 002c FB79     		ldrb	r3, [r7, #7]	@ zero_extendqisi2
 356:main.c        **** }
 759              		.loc 1 356 0
 760 002e 1846     		mov	r0, r3
 761 0030 0837     		adds	r7, r7, #8
 762              		.cfi_def_cfa_offset 8
ARM GAS  C:\Users\Gemma\AppData\Local\Temp\ccQ9mrke.s 			page 21


 763 0032 BD46     		mov	sp, r7
 764              		.cfi_def_cfa_register 13
 765              		@ sp needed
 766 0034 80BD     		pop	{r7, pc}
 767              		.cfi_endproc
 768              	.LFE70:
 769              		.size	OWReadBit, .-OWReadBit
 770 0036 00BF     		.section	.text.OWReadByte,"ax",%progbits
 771              		.align	2
 772              		.global	OWReadByte
 773              		.thumb
 774              		.thumb_func
 775              		.type	OWReadByte, %function
 776              	OWReadByte:
 777              	.LFB71:
 357:main.c        **** 
 358:main.c        **** /*******************************************************************************
 359:main.c        **** * Function Name: OWReadByte
 360:main.c        **** ********************************************************************************
 361:main.c        **** *
 362:main.c        **** * Summary:
 363:main.c        **** *  Reads a byte by calling OWReadBit() 8 times.
 364:main.c        **** *
 365:main.c        **** * Parameters:
 366:main.c        **** *  None.
 367:main.c        **** *
 368:main.c        **** * Return:
 369:main.c        **** *  int: returns the read byte.
 370:main.c        **** *
 371:main.c        **** *******************************************************************************/
 372:main.c        **** uint8 OWReadByte() {
 778              		.loc 1 372 0
 779              		.cfi_startproc
 780              		@ args = 0, pretend = 0, frame = 8
 781              		@ frame_needed = 1, uses_anonymous_args = 0
 782 0000 80B5     		push	{r7, lr}
 783              		.cfi_def_cfa_offset 8
 784              		.cfi_offset 7, -8
 785              		.cfi_offset 14, -4
 786 0002 82B0     		sub	sp, sp, #8
 787              		.cfi_def_cfa_offset 16
 788 0004 00AF     		add	r7, sp, #0
 789              		.cfi_def_cfa_register 7
 373:main.c        ****     int result = 0;
 790              		.loc 1 373 0
 791 0006 0023     		movs	r3, #0
 792 0008 7B60     		str	r3, [r7, #4]
 793              	.LBB10:
 374:main.c        **** 
 375:main.c        ****     for (int loop = 0; loop < 8; loop++)
 794              		.loc 1 375 0
 795 000a 0023     		movs	r3, #0
 796 000c 3B60     		str	r3, [r7]
 797 000e 0EE0     		b	.L39
 798              	.L41:
 376:main.c        ****     {
 377:main.c        ****         /* Shift the result to get it ready for the next bit. */
ARM GAS  C:\Users\Gemma\AppData\Local\Temp\ccQ9mrke.s 			page 22


 378:main.c        ****         result >>= 1;
 799              		.loc 1 378 0
 800 0010 7B68     		ldr	r3, [r7, #4]
 801 0012 5B10     		asrs	r3, r3, #1
 802 0014 7B60     		str	r3, [r7, #4]
 379:main.c        **** 
 380:main.c        ****         /* If result is one, then set MS bit. */
 381:main.c        ****         if (OWReadBit()) {
 803              		.loc 1 381 0
 804 0016 FFF7FEFF 		bl	OWReadBit
 805 001a 0346     		mov	r3, r0
 806 001c 002B     		cmp	r3, #0
 807 001e 03D0     		beq	.L40
 382:main.c        ****             result |= 0x80;
 808              		.loc 1 382 0
 809 0020 7B68     		ldr	r3, [r7, #4]
 810 0022 43F08003 		orr	r3, r3, #128
 811 0026 7B60     		str	r3, [r7, #4]
 812              	.L40:
 375:main.c        ****     {
 813              		.loc 1 375 0 discriminator 2
 814 0028 3B68     		ldr	r3, [r7]
 815 002a 0133     		adds	r3, r3, #1
 816 002c 3B60     		str	r3, [r7]
 817              	.L39:
 375:main.c        ****     {
 818              		.loc 1 375 0 is_stmt 0 discriminator 1
 819 002e 3B68     		ldr	r3, [r7]
 820 0030 072B     		cmp	r3, #7
 821 0032 EDDD     		ble	.L41
 822              	.LBE10:
 383:main.c        ****         }    
 384:main.c        ****     }
 385:main.c        ****     return result;
 823              		.loc 1 385 0 is_stmt 1
 824 0034 7B68     		ldr	r3, [r7, #4]
 825 0036 DBB2     		uxtb	r3, r3
 386:main.c        **** }
 826              		.loc 1 386 0
 827 0038 1846     		mov	r0, r3
 828 003a 0837     		adds	r7, r7, #8
 829              		.cfi_def_cfa_offset 8
 830 003c BD46     		mov	sp, r7
 831              		.cfi_def_cfa_register 13
 832              		@ sp needed
 833 003e 80BD     		pop	{r7, pc}
 834              		.cfi_endproc
 835              	.LFE71:
 836              		.size	OWReadByte, .-OWReadByte
 837              		.section	.text.DS18B20_tempCalc,"ax",%progbits
 838              		.align	2
 839              		.global	DS18B20_tempCalc
 840              		.thumb
 841              		.thumb_func
 842              		.type	DS18B20_tempCalc, %function
 843              	DS18B20_tempCalc:
 844              	.LFB72:
ARM GAS  C:\Users\Gemma\AppData\Local\Temp\ccQ9mrke.s 			page 23


 387:main.c        **** 
 388:main.c        **** /*******************************************************************************
 389:main.c        **** * Function Name: LM35_tempCalc
 390:main.c        **** ********************************************************************************
 391:main.c        **** *
 392:main.c        **** * Summary:
 393:main.c        **** *  Bus Master initiates temperature conversion, then reads temperature (parasite power assumed).
 394:main.c        **** *
 395:main.c        **** * Parameters:
 396:main.c        **** *  None.
 397:main.c        **** *
 398:main.c        **** * Return:
 399:main.c        **** *  None.
 400:main.c        **** *
 401:main.c        **** *******************************************************************************/
 402:main.c        **** void DS18B20_tempCalc() {
 845              		.loc 1 402 0
 846              		.cfi_startproc
 847              		@ args = 0, pretend = 0, frame = 16
 848              		@ frame_needed = 1, uses_anonymous_args = 0
 849 0000 80B5     		push	{r7, lr}
 850              		.cfi_def_cfa_offset 8
 851              		.cfi_offset 7, -8
 852              		.cfi_offset 14, -4
 853 0002 84B0     		sub	sp, sp, #16
 854              		.cfi_def_cfa_offset 24
 855 0004 00AF     		add	r7, sp, #0
 856              		.cfi_def_cfa_register 7
 403:main.c        ****     uint8 status = OWReset();
 857              		.loc 1 403 0
 858 0006 FFF7FEFF 		bl	OWReset
 859 000a 0346     		mov	r3, r0
 860 000c FB71     		strb	r3, [r7, #7]
 404:main.c        ****     if (status == OW_RESPONSE) {
 861              		.loc 1 404 0
 862 000e FB79     		ldrb	r3, [r7, #7]	@ zero_extendqisi2
 863 0010 002B     		cmp	r3, #0
 864 0012 49D1     		bne	.L52
 865              	.LBB11:
 405:main.c        ****         OWWriteByte(0xCC);
 866              		.loc 1 405 0
 867 0014 CC20     		movs	r0, #204
 868 0016 FFF7FEFF 		bl	OWWriteByte
 406:main.c        ****         uint8 senddata = 0x44;                                  // Issue  Convert T command.
 869              		.loc 1 406 0
 870 001a 4423     		movs	r3, #68
 871 001c FB73     		strb	r3, [r7, #15]
 872              	.LBB12:
 407:main.c        ****         /* Send first 7 bits */
 408:main.c        ****         for (int loop = 0; loop < 7; loop++) {
 873              		.loc 1 408 0
 874 001e 0023     		movs	r3, #0
 875 0020 BB60     		str	r3, [r7, #8]
 876 0022 22E0     		b	.L45
 877              	.L48:
 878              	.LBB13:
 409:main.c        ****             uint8 bit = senddata & 0x01;
ARM GAS  C:\Users\Gemma\AppData\Local\Temp\ccQ9mrke.s 			page 24


 879              		.loc 1 409 0
 880 0024 FB7B     		ldrb	r3, [r7, #15]
 881 0026 03F00103 		and	r3, r3, #1
 882 002a BB71     		strb	r3, [r7, #6]
 410:main.c        ****             OneWire_Write(0);
 883              		.loc 1 410 0
 884 002c 0020     		movs	r0, #0
 885 002e FFF7FEFF 		bl	OneWire_Write
 411:main.c        ****             if (bit) {
 886              		.loc 1 411 0
 887 0032 BB79     		ldrb	r3, [r7, #6]	@ zero_extendqisi2
 888 0034 002B     		cmp	r3, #0
 889 0036 09D0     		beq	.L46
 412:main.c        ****                 CyDelayUs(tLOW1);                               // tLOW1: 3
 890              		.loc 1 412 0
 891 0038 0320     		movs	r0, #3
 892 003a FFF7FEFF 		bl	CyDelayUs
 413:main.c        ****                 OneWire_Write(1);
 893              		.loc 1 413 0
 894 003e 0120     		movs	r0, #1
 895 0040 FFF7FEFF 		bl	OneWire_Write
 414:main.c        ****                 CyDelayUs(tSLOT - tLOW1);                       // Remainder of tSLOT: 80 - 3
 896              		.loc 1 414 0
 897 0044 4D20     		movs	r0, #77
 898 0046 FFF7FEFF 		bl	CyDelayUs
 899 004a 08E0     		b	.L47
 900              	.L46:
 415:main.c        ****             } else {
 416:main.c        ****                 CyDelayUs(rLOW0);                               // rLOW0: 70
 901              		.loc 1 416 0
 902 004c 4620     		movs	r0, #70
 903 004e FFF7FEFF 		bl	CyDelayUs
 417:main.c        ****                 OneWire_Write(1);
 904              		.loc 1 417 0
 905 0052 0120     		movs	r0, #1
 906 0054 FFF7FEFF 		bl	OneWire_Write
 418:main.c        ****                 CyDelayUs(tSLOT - rLOW0);                       // Remainder of tSLOT: 80 - 70
 907              		.loc 1 418 0
 908 0058 0A20     		movs	r0, #10
 909 005a FFF7FEFF 		bl	CyDelayUs
 910              	.L47:
 419:main.c        ****             }
 420:main.c        ****             senddata >>= 1;
 911              		.loc 1 420 0 discriminator 2
 912 005e FB7B     		ldrb	r3, [r7, #15]	@ zero_extendqisi2
 913 0060 5B08     		lsrs	r3, r3, #1
 914 0062 FB73     		strb	r3, [r7, #15]
 915              	.LBE13:
 408:main.c        ****             uint8 bit = senddata & 0x01;
 916              		.loc 1 408 0 discriminator 2
 917 0064 BB68     		ldr	r3, [r7, #8]
 918 0066 0133     		adds	r3, r3, #1
 919 0068 BB60     		str	r3, [r7, #8]
 920              	.L45:
 408:main.c        ****             uint8 bit = senddata & 0x01;
 921              		.loc 1 408 0 is_stmt 0 discriminator 1
 922 006a BB68     		ldr	r3, [r7, #8]
ARM GAS  C:\Users\Gemma\AppData\Local\Temp\ccQ9mrke.s 			page 25


 923 006c 062B     		cmp	r3, #6
 924 006e D9DD     		ble	.L48
 925              	.LBE12:
 421:main.c        ****         }
 422:main.c        ****         /* Send last bit */
 423:main.c        ****         OneWire_Write(0);
 926              		.loc 1 423 0 is_stmt 1
 927 0070 0020     		movs	r0, #0
 928 0072 FFF7FEFF 		bl	OneWire_Write
 424:main.c        ****         if (senddata & 0x01) {
 929              		.loc 1 424 0
 930 0076 FB7B     		ldrb	r3, [r7, #15]	@ zero_extendqisi2
 931 0078 03F00103 		and	r3, r3, #1
 932 007c 002B     		cmp	r3, #0
 933 007e 03D0     		beq	.L49
 425:main.c        ****             CyDelayUs(tLOW1);       
 934              		.loc 1 425 0
 935 0080 0320     		movs	r0, #3
 936 0082 FFF7FEFF 		bl	CyDelayUs
 937 0086 02E0     		b	.L50
 938              	.L49:
 426:main.c        ****         } else {
 427:main.c        ****             CyDelayUs(rLOW0);      
 939              		.loc 1 427 0
 940 0088 4620     		movs	r0, #70
 941 008a FFF7FEFF 		bl	CyDelayUs
 942              	.L50:
 428:main.c        ****         }
 429:main.c        ****          OneWire_Write(1);
 943              		.loc 1 429 0
 944 008e 0120     		movs	r0, #1
 945 0090 FFF7FEFF 		bl	OneWire_Write
 430:main.c        **** 
 431:main.c        ****         OneWire_SetDriveMode(OneWire_DM_STRONG);
 946              		.loc 1 431 0
 947 0094 0C20     		movs	r0, #12
 948 0096 FFF7FEFF 		bl	OneWire_SetDriveMode
 432:main.c        ****         CyDelay(tCONV);                                         // tCONV: 94
 949              		.loc 1 432 0
 950 009a 5E20     		movs	r0, #94
 951 009c FFF7FEFF 		bl	CyDelay
 433:main.c        ****         OneWire_SetDriveMode(OneWire_DM_RES_UP);
 952              		.loc 1 433 0
 953 00a0 0420     		movs	r0, #4
 954 00a2 FFF7FEFF 		bl	OneWire_SetDriveMode
 955              	.LBE11:
 434:main.c        ****     }
 435:main.c        ****     return;
 956              		.loc 1 435 0
 957 00a6 00BF     		nop
 958              	.L52:
 959 00a8 00BF     		nop
 436:main.c        **** }
 960              		.loc 1 436 0
 961 00aa 1037     		adds	r7, r7, #16
 962              		.cfi_def_cfa_offset 8
 963 00ac BD46     		mov	sp, r7
ARM GAS  C:\Users\Gemma\AppData\Local\Temp\ccQ9mrke.s 			page 26


 964              		.cfi_def_cfa_register 13
 965              		@ sp needed
 966 00ae 80BD     		pop	{r7, pc}
 967              		.cfi_endproc
 968              	.LFE72:
 969              		.size	DS18B20_tempCalc, .-DS18B20_tempCalc
 970              		.global	__aeabi_ui2f
 971              		.section	.text.LM35_tempCalc,"ax",%progbits
 972              		.align	2
 973              		.global	LM35_tempCalc
 974              		.thumb
 975              		.thumb_func
 976              		.type	LM35_tempCalc, %function
 977              	LM35_tempCalc:
 978              	.LFB73:
 437:main.c        **** 
 438:main.c        **** /*******************************************************************************
 439:main.c        **** * Function Name: LM35_tempCalc
 440:main.c        **** ********************************************************************************
 441:main.c        **** *
 442:main.c        **** * Summary:
 443:main.c        **** *  Calculates the average of Vout and the temperature. 
 444:main.c        **** *
 445:main.c        **** * Parameters:
 446:main.c        **** *  None.
 447:main.c        **** *
 448:main.c        **** * Return:
 449:main.c        **** *  None.
 450:main.c        **** *
 451:main.c        **** *******************************************************************************/
 452:main.c        **** void LM35_tempCalc() {
 979              		.loc 1 452 0
 980              		.cfi_startproc
 981              		@ args = 0, pretend = 0, frame = 0
 982              		@ frame_needed = 1, uses_anonymous_args = 0
 983 0000 80B5     		push	{r7, lr}
 984              		.cfi_def_cfa_offset 8
 985              		.cfi_offset 7, -8
 986              		.cfi_offset 14, -4
 987 0002 00AF     		add	r7, sp, #0
 988              		.cfi_def_cfa_register 7
 453:main.c        ****     Vout_average = Vout_sum_isr / n_isr; 
 989              		.loc 1 453 0
 990 0004 0B4B     		ldr	r3, .L55
 991 0006 1A68     		ldr	r2, [r3]
 992 0008 0B4B     		ldr	r3, .L55+4
 993 000a 1B68     		ldr	r3, [r3]
 994 000c B2FBF3F3 		udiv	r3, r2, r3
 995 0010 1846     		mov	r0, r3
 996 0012 FFF7FEFF 		bl	__aeabi_ui2f
 997 0016 0246     		mov	r2, r0
 998 0018 084B     		ldr	r3, .L55+8
 999 001a 1A60     		str	r2, [r3]	@ float
 454:main.c        ****     /* Converts to temperature: Vout = 10 mV/C * T from LM35 datasheet */
 455:main.c        ****     LM35_temp = Vout_average / 10;             
 1000              		.loc 1 455 0
 1001 001c 074B     		ldr	r3, .L55+8
ARM GAS  C:\Users\Gemma\AppData\Local\Temp\ccQ9mrke.s 			page 27


 1002 001e 1B68     		ldr	r3, [r3]	@ float
 1003 0020 0749     		ldr	r1, .L55+12
 1004 0022 1846     		mov	r0, r3
 1005 0024 FFF7FEFF 		bl	__aeabi_fdiv
 1006 0028 0346     		mov	r3, r0
 1007 002a 1A46     		mov	r2, r3
 1008 002c 054B     		ldr	r3, .L55+16
 1009 002e 1A60     		str	r2, [r3]	@ float
 456:main.c        ****     return;
 1010              		.loc 1 456 0
 1011 0030 00BF     		nop
 457:main.c        **** }
 1012              		.loc 1 457 0
 1013 0032 80BD     		pop	{r7, pc}
 1014              	.L56:
 1015              		.align	2
 1016              	.L55:
 1017 0034 00000000 		.word	Vout_sum_isr
 1018 0038 00000000 		.word	n_isr
 1019 003c 00000000 		.word	Vout_average
 1020 0040 00002041 		.word	1092616192
 1021 0044 00000000 		.word	LM35_temp
 1022              		.cfi_endproc
 1023              	.LFE73:
 1024              		.size	LM35_tempCalc, .-LM35_tempCalc
 1025              		.section	.text.MyADCIsr,"ax",%progbits
 1026              		.align	2
 1027              		.global	MyADCIsr
 1028              		.thumb
 1029              		.thumb_func
 1030              		.type	MyADCIsr, %function
 1031              	MyADCIsr:
 1032              	.LFB74:
 458:main.c        **** 
 459:main.c        **** /*******************************************************************************
 460:main.c        **** * Function Name: MyADCIsr         ADC Interrupt Service Routine
 461:main.c        **** ********************************************************************************
 462:main.c        **** *
 463:main.c        **** * Summary:
 464:main.c        **** *  Reads Vout data from sensor, adds to running average aand increment sampling
 465:main.c        **** *  counter by one.
 466:main.c        **** *
 467:main.c        **** * Parameters:  
 468:main.c        **** *   None.
 469:main.c        **** *
 470:main.c        **** * Return:
 471:main.c        **** *   None
 472:main.c        **** *
 473:main.c        **** *******************************************************************************/
 474:main.c        **** CY_ISR(MyADCIsr) {
 1033              		.loc 1 474 0
 1034              		.cfi_startproc
 1035              		@ args = 0, pretend = 0, frame = 8
 1036              		@ frame_needed = 1, uses_anonymous_args = 0
 1037 0000 80B5     		push	{r7, lr}
 1038              		.cfi_def_cfa_offset 8
 1039              		.cfi_offset 7, -8
ARM GAS  C:\Users\Gemma\AppData\Local\Temp\ccQ9mrke.s 			page 28


 1040              		.cfi_offset 14, -4
 1041 0002 82B0     		sub	sp, sp, #8
 1042              		.cfi_def_cfa_offset 16
 1043 0004 00AF     		add	r7, sp, #0
 1044              		.cfi_def_cfa_register 7
 475:main.c        ****     uint32 output = ADC_DelSig_CountsTo_mVolts(ADC_DelSig_GetResult16());
 1045              		.loc 1 475 0
 1046 0006 FFF7FEFF 		bl	ADC_DelSig_GetResult16
 1047 000a 0346     		mov	r3, r0
 1048 000c 1846     		mov	r0, r3
 1049 000e FFF7FEFF 		bl	ADC_DelSig_CountsTo_mVolts
 1050 0012 0346     		mov	r3, r0
 1051 0014 7B60     		str	r3, [r7, #4]
 476:main.c        ****     Vout_sum += output;
 1052              		.loc 1 476 0
 1053 0016 074B     		ldr	r3, .L58
 1054 0018 1A68     		ldr	r2, [r3]
 1055 001a 7B68     		ldr	r3, [r7, #4]
 1056 001c 1344     		add	r3, r3, r2
 1057 001e 054A     		ldr	r2, .L58
 1058 0020 1360     		str	r3, [r2]
 477:main.c        ****     n++;
 1059              		.loc 1 477 0
 1060 0022 054B     		ldr	r3, .L58+4
 1061 0024 1B68     		ldr	r3, [r3]
 1062 0026 0133     		adds	r3, r3, #1
 1063 0028 034A     		ldr	r2, .L58+4
 1064 002a 1360     		str	r3, [r2]
 478:main.c        **** }
 1065              		.loc 1 478 0
 1066 002c 00BF     		nop
 1067 002e 0837     		adds	r7, r7, #8
 1068              		.cfi_def_cfa_offset 8
 1069 0030 BD46     		mov	sp, r7
 1070              		.cfi_def_cfa_register 13
 1071              		@ sp needed
 1072 0032 80BD     		pop	{r7, pc}
 1073              	.L59:
 1074              		.align	2
 1075              	.L58:
 1076 0034 00000000 		.word	Vout_sum
 1077 0038 00000000 		.word	n
 1078              		.cfi_endproc
 1079              	.LFE74:
 1080              		.size	MyADCIsr, .-MyADCIsr
 1081              		.section	.text.MyClockIsr,"ax",%progbits
 1082              		.align	2
 1083              		.global	MyClockIsr
 1084              		.thumb
 1085              		.thumb_func
 1086              		.type	MyClockIsr, %function
 1087              	MyClockIsr:
 1088              	.LFB75:
 479:main.c        **** 
 480:main.c        **** /*******************************************************************************
 481:main.c        **** * Function Name: MyClockIsr         Timer Interrupt Service Routine
 482:main.c        **** ********************************************************************************
ARM GAS  C:\Users\Gemma\AppData\Local\Temp\ccQ9mrke.s 			page 29


 483:main.c        **** *
 484:main.c        **** * Summary:
 485:main.c        **** *  Reads the control register and returns it's value.
 486:main.c        **** *  Copies and resets respective parameters while ADC interrupt is disabled.
 487:main.c        **** *  Every second time when function is called, samples DS18B20 sensor.
 488:main.c        **** *  Sets flags.
 489:main.c        **** *
 490:main.c        **** * Parameters:  
 491:main.c        **** *   None.
 492:main.c        **** *
 493:main.c        **** * Return:
 494:main.c        **** *   None
 495:main.c        **** *
 496:main.c        **** *******************************************************************************/
 497:main.c        **** CY_ISR(MyClockIsr) {                      // LM35 sampled every half minute.
 1089              		.loc 1 497 0
 1090              		.cfi_startproc
 1091              		@ args = 0, pretend = 0, frame = 0
 1092              		@ frame_needed = 1, uses_anonymous_args = 0
 1093 0000 80B5     		push	{r7, lr}
 1094              		.cfi_def_cfa_offset 8
 1095              		.cfi_offset 7, -8
 1096              		.cfi_offset 14, -4
 1097 0002 00AF     		add	r7, sp, #0
 1098              		.cfi_def_cfa_register 7
 498:main.c        ****     ADC_Timer_ReadStatusRegister();       // Clears the pending interrupt.
 1099              		.loc 1 498 0
 1100 0004 FFF7FEFF 		bl	ADC_Timer_ReadStatusRegister
 499:main.c        ****     
 500:main.c        ****     /* Disables ADC_Isr temporarily for copying and resetting. */
 501:main.c        ****     ADC_Isr_Disable();               
 1101              		.loc 1 501 0
 1102 0008 FFF7FEFF 		bl	ADC_Isr_Disable
 502:main.c        ****     Vout_sum_isr = Vout_sum;       
 1103              		.loc 1 502 0
 1104 000c 114B     		ldr	r3, .L62
 1105 000e 1B68     		ldr	r3, [r3]
 1106 0010 114A     		ldr	r2, .L62+4
 1107 0012 1360     		str	r3, [r2]
 503:main.c        ****     n_isr = n;
 1108              		.loc 1 503 0
 1109 0014 114B     		ldr	r3, .L62+8
 1110 0016 1B68     		ldr	r3, [r3]
 1111 0018 114A     		ldr	r2, .L62+12
 1112 001a 1360     		str	r3, [r2]
 504:main.c        ****     Vout_sum = 0;
 1113              		.loc 1 504 0
 1114 001c 0D4B     		ldr	r3, .L62
 1115 001e 0022     		movs	r2, #0
 1116 0020 1A60     		str	r2, [r3]
 505:main.c        ****     n = 0;
 1117              		.loc 1 505 0
 1118 0022 0E4B     		ldr	r3, .L62+8
 1119 0024 0022     		movs	r2, #0
 1120 0026 1A60     		str	r2, [r3]
 506:main.c        ****     ADC_Isr_Enable();
 1121              		.loc 1 506 0
ARM GAS  C:\Users\Gemma\AppData\Local\Temp\ccQ9mrke.s 			page 30


 1122 0028 FFF7FEFF 		bl	ADC_Isr_Enable
 507:main.c        ****   
 508:main.c        ****     if(counter++ % 2) {                   // DS18B20 sampled once a minute.
 1123              		.loc 1 508 0
 1124 002c 0D4B     		ldr	r3, .L62+16
 1125 002e 1B78     		ldrb	r3, [r3]	@ zero_extendqisi2
 1126 0030 5A1C     		adds	r2, r3, #1
 1127 0032 D1B2     		uxtb	r1, r2
 1128 0034 0B4A     		ldr	r2, .L62+16
 1129 0036 1170     		strb	r1, [r2]
 1130 0038 03F00103 		and	r3, r3, #1
 1131 003c DBB2     		uxtb	r3, r3
 1132 003e 002B     		cmp	r3, #0
 1133 0040 02D0     		beq	.L61
 509:main.c        ****         OneWire_flag = 1;
 1134              		.loc 1 509 0
 1135 0042 094B     		ldr	r3, .L62+20
 1136 0044 0122     		movs	r2, #1
 1137 0046 1A70     		strb	r2, [r3]
 1138              	.L61:
 510:main.c        ****     }
 511:main.c        ****     
 512:main.c        ****     UART_flag = 1; 
 1139              		.loc 1 512 0
 1140 0048 084B     		ldr	r3, .L62+24
 1141 004a 0122     		movs	r2, #1
 1142 004c 1A70     		strb	r2, [r3]
 513:main.c        **** }
 1143              		.loc 1 513 0
 1144 004e 00BF     		nop
 1145 0050 80BD     		pop	{r7, pc}
 1146              	.L63:
 1147 0052 00BF     		.align	2
 1148              	.L62:
 1149 0054 00000000 		.word	Vout_sum
 1150 0058 00000000 		.word	Vout_sum_isr
 1151 005c 00000000 		.word	n
 1152 0060 00000000 		.word	n_isr
 1153 0064 00000000 		.word	counter
 1154 0068 00000000 		.word	OneWire_flag
 1155 006c 00000000 		.word	UART_flag
 1156              		.cfi_endproc
 1157              	.LFE75:
 1158              		.size	MyClockIsr, .-MyClockIsr
 1159              		.text
 1160              	.Letext0:
 1161              		.file 2 "c:\\program files (x86)\\cypress\\psoc creator\\4.2\\psoc creator\\import\\gnu\\arm\\5.4.
 1162              		.file 3 "c:\\program files (x86)\\cypress\\psoc creator\\4.2\\psoc creator\\import\\gnu\\arm\\5.4.
 1163              		.file 4 "Generated_Source\\PSoC5/cytypes.h"
 1164              		.file 5 "Generated_Source\\PSoC5/core_cm3.h"