ARM GAS  C:\Users\Gemma\AppData\Local\Temp\cczvAlEd.s 			page 1


   1              		.syntax unified
   2              		.cpu cortex-m3
   3              		.fpu softvfp
   4              		.eabi_attribute 20, 1
   5              		.eabi_attribute 21, 1
   6              		.eabi_attribute 23, 3
   7              		.eabi_attribute 24, 1
   8              		.eabi_attribute 25, 1
   9              		.eabi_attribute 26, 1
  10              		.eabi_attribute 30, 1
  11              		.eabi_attribute 34, 1
  12              		.eabi_attribute 18, 4
  13              		.thumb
  14              		.syntax unified
  15              		.file	"Button_isr.c"
  16              		.text
  17              	.Ltext0:
  18              		.cfi_sections	.debug_frame
  19              		.section	.text.Button_isr_Interrupt,"ax",%progbits
  20              		.align	2
  21              		.global	Button_isr_Interrupt
  22              		.thumb
  23              		.thumb_func
  24              		.type	Button_isr_Interrupt, %function
  25              	Button_isr_Interrupt:
  26              	.LFB66:
  27              		.file 1 "Generated_Source\\PSoC5\\Button_isr.c"
   1:Generated_Source\PSoC5/Button_isr.c **** /*******************************************************************************
   2:Generated_Source\PSoC5/Button_isr.c **** * File Name: Button_isr.c  
   3:Generated_Source\PSoC5/Button_isr.c **** * Version 1.70
   4:Generated_Source\PSoC5/Button_isr.c **** *
   5:Generated_Source\PSoC5/Button_isr.c **** *  Description:
   6:Generated_Source\PSoC5/Button_isr.c **** *   API for controlling the state of an interrupt.
   7:Generated_Source\PSoC5/Button_isr.c **** *
   8:Generated_Source\PSoC5/Button_isr.c **** *
   9:Generated_Source\PSoC5/Button_isr.c **** *  Note:
  10:Generated_Source\PSoC5/Button_isr.c **** *
  11:Generated_Source\PSoC5/Button_isr.c **** ********************************************************************************
  12:Generated_Source\PSoC5/Button_isr.c **** * Copyright 2008-2015, Cypress Semiconductor Corporation.  All rights reserved.
  13:Generated_Source\PSoC5/Button_isr.c **** * You may use this file only in accordance with the license, terms, conditions, 
  14:Generated_Source\PSoC5/Button_isr.c **** * disclaimers, and limitations in the end user license agreement accompanying 
  15:Generated_Source\PSoC5/Button_isr.c **** * the software package with which this file was provided.
  16:Generated_Source\PSoC5/Button_isr.c **** *******************************************************************************/
  17:Generated_Source\PSoC5/Button_isr.c **** 
  18:Generated_Source\PSoC5/Button_isr.c **** 
  19:Generated_Source\PSoC5/Button_isr.c **** #include <cydevice_trm.h>
  20:Generated_Source\PSoC5/Button_isr.c **** #include <CyLib.h>
  21:Generated_Source\PSoC5/Button_isr.c **** #include <Button_isr.h>
  22:Generated_Source\PSoC5/Button_isr.c **** #include "cyapicallbacks.h"
  23:Generated_Source\PSoC5/Button_isr.c **** 
  24:Generated_Source\PSoC5/Button_isr.c **** #if !defined(Button_isr__REMOVED) /* Check for removal by optimization */
  25:Generated_Source\PSoC5/Button_isr.c **** 
  26:Generated_Source\PSoC5/Button_isr.c **** /*******************************************************************************
  27:Generated_Source\PSoC5/Button_isr.c **** *  Place your includes, defines and code here 
  28:Generated_Source\PSoC5/Button_isr.c **** ********************************************************************************/
  29:Generated_Source\PSoC5/Button_isr.c **** /* `#START Button_isr_intc` */
  30:Generated_Source\PSoC5/Button_isr.c **** #include "project.h"
ARM GAS  C:\Users\Gemma\AppData\Local\Temp\cczvAlEd.s 			page 2


  31:Generated_Source\PSoC5/Button_isr.c **** /* `#END` */
  32:Generated_Source\PSoC5/Button_isr.c **** 
  33:Generated_Source\PSoC5/Button_isr.c **** #ifndef CYINT_IRQ_BASE
  34:Generated_Source\PSoC5/Button_isr.c **** #define CYINT_IRQ_BASE      16
  35:Generated_Source\PSoC5/Button_isr.c **** #endif /* CYINT_IRQ_BASE */
  36:Generated_Source\PSoC5/Button_isr.c **** #ifndef CYINT_VECT_TABLE
  37:Generated_Source\PSoC5/Button_isr.c **** #define CYINT_VECT_TABLE    ((cyisraddress **) CYREG_NVIC_VECT_OFFSET)
  38:Generated_Source\PSoC5/Button_isr.c **** #endif /* CYINT_VECT_TABLE */
  39:Generated_Source\PSoC5/Button_isr.c **** 
  40:Generated_Source\PSoC5/Button_isr.c **** /* Declared in startup, used to set unused interrupts to. */
  41:Generated_Source\PSoC5/Button_isr.c **** CY_ISR_PROTO(IntDefaultHandler);
  42:Generated_Source\PSoC5/Button_isr.c **** 
  43:Generated_Source\PSoC5/Button_isr.c **** 
  44:Generated_Source\PSoC5/Button_isr.c **** /*******************************************************************************
  45:Generated_Source\PSoC5/Button_isr.c **** * Function Name: Button_isr_Start
  46:Generated_Source\PSoC5/Button_isr.c **** ********************************************************************************
  47:Generated_Source\PSoC5/Button_isr.c **** *
  48:Generated_Source\PSoC5/Button_isr.c **** * Summary:
  49:Generated_Source\PSoC5/Button_isr.c **** *  Set up the interrupt and enable it. This function disables the interrupt, 
  50:Generated_Source\PSoC5/Button_isr.c **** *  sets the default interrupt vector, sets the priority from the value in the
  51:Generated_Source\PSoC5/Button_isr.c **** *  Design Wide Resources Interrupt Editor, then enables the interrupt to the 
  52:Generated_Source\PSoC5/Button_isr.c **** *  interrupt controller.
  53:Generated_Source\PSoC5/Button_isr.c **** *
  54:Generated_Source\PSoC5/Button_isr.c **** * Parameters:  
  55:Generated_Source\PSoC5/Button_isr.c **** *   None
  56:Generated_Source\PSoC5/Button_isr.c **** *
  57:Generated_Source\PSoC5/Button_isr.c **** * Return:
  58:Generated_Source\PSoC5/Button_isr.c **** *   None
  59:Generated_Source\PSoC5/Button_isr.c **** *
  60:Generated_Source\PSoC5/Button_isr.c **** *******************************************************************************/
  61:Generated_Source\PSoC5/Button_isr.c **** void Button_isr_Start(void)
  62:Generated_Source\PSoC5/Button_isr.c **** {
  63:Generated_Source\PSoC5/Button_isr.c ****     /* For all we know the interrupt is active. */
  64:Generated_Source\PSoC5/Button_isr.c ****     Button_isr_Disable();
  65:Generated_Source\PSoC5/Button_isr.c **** 
  66:Generated_Source\PSoC5/Button_isr.c ****     /* Set the ISR to point to the Button_isr Interrupt. */
  67:Generated_Source\PSoC5/Button_isr.c ****     Button_isr_SetVector(&Button_isr_Interrupt);
  68:Generated_Source\PSoC5/Button_isr.c **** 
  69:Generated_Source\PSoC5/Button_isr.c ****     /* Set the priority. */
  70:Generated_Source\PSoC5/Button_isr.c ****     Button_isr_SetPriority((uint8)Button_isr_INTC_PRIOR_NUMBER);
  71:Generated_Source\PSoC5/Button_isr.c **** 
  72:Generated_Source\PSoC5/Button_isr.c ****     /* Enable it. */
  73:Generated_Source\PSoC5/Button_isr.c ****     Button_isr_Enable();
  74:Generated_Source\PSoC5/Button_isr.c **** }
  75:Generated_Source\PSoC5/Button_isr.c **** 
  76:Generated_Source\PSoC5/Button_isr.c **** 
  77:Generated_Source\PSoC5/Button_isr.c **** /*******************************************************************************
  78:Generated_Source\PSoC5/Button_isr.c **** * Function Name: Button_isr_StartEx
  79:Generated_Source\PSoC5/Button_isr.c **** ********************************************************************************
  80:Generated_Source\PSoC5/Button_isr.c **** *
  81:Generated_Source\PSoC5/Button_isr.c **** * Summary:
  82:Generated_Source\PSoC5/Button_isr.c **** *  Sets up the interrupt and enables it. This function disables the interrupt,
  83:Generated_Source\PSoC5/Button_isr.c **** *  sets the interrupt vector based on the address passed in, sets the priority 
  84:Generated_Source\PSoC5/Button_isr.c **** *  from the value in the Design Wide Resources Interrupt Editor, then enables 
  85:Generated_Source\PSoC5/Button_isr.c **** *  the interrupt to the interrupt controller.
  86:Generated_Source\PSoC5/Button_isr.c **** *  
  87:Generated_Source\PSoC5/Button_isr.c **** *  When defining ISR functions, the CY_ISR and CY_ISR_PROTO macros should be 
ARM GAS  C:\Users\Gemma\AppData\Local\Temp\cczvAlEd.s 			page 3


  88:Generated_Source\PSoC5/Button_isr.c **** *  used to provide consistent definition across compilers:
  89:Generated_Source\PSoC5/Button_isr.c **** *  
  90:Generated_Source\PSoC5/Button_isr.c **** *  Function definition example:
  91:Generated_Source\PSoC5/Button_isr.c **** *   CY_ISR(MyISR)
  92:Generated_Source\PSoC5/Button_isr.c **** *   {
  93:Generated_Source\PSoC5/Button_isr.c **** *   }
  94:Generated_Source\PSoC5/Button_isr.c **** *   Function prototype example:
  95:Generated_Source\PSoC5/Button_isr.c **** *   CY_ISR_PROTO(MyISR);
  96:Generated_Source\PSoC5/Button_isr.c **** *
  97:Generated_Source\PSoC5/Button_isr.c **** * Parameters:  
  98:Generated_Source\PSoC5/Button_isr.c **** *   address: Address of the ISR to set in the interrupt vector table.
  99:Generated_Source\PSoC5/Button_isr.c **** *
 100:Generated_Source\PSoC5/Button_isr.c **** * Return:
 101:Generated_Source\PSoC5/Button_isr.c **** *   None
 102:Generated_Source\PSoC5/Button_isr.c **** *
 103:Generated_Source\PSoC5/Button_isr.c **** *******************************************************************************/
 104:Generated_Source\PSoC5/Button_isr.c **** void Button_isr_StartEx(cyisraddress address)
 105:Generated_Source\PSoC5/Button_isr.c **** {
 106:Generated_Source\PSoC5/Button_isr.c ****     /* For all we know the interrupt is active. */
 107:Generated_Source\PSoC5/Button_isr.c ****     Button_isr_Disable();
 108:Generated_Source\PSoC5/Button_isr.c **** 
 109:Generated_Source\PSoC5/Button_isr.c ****     /* Set the ISR to point to the Button_isr Interrupt. */
 110:Generated_Source\PSoC5/Button_isr.c ****     Button_isr_SetVector(address);
 111:Generated_Source\PSoC5/Button_isr.c **** 
 112:Generated_Source\PSoC5/Button_isr.c ****     /* Set the priority. */
 113:Generated_Source\PSoC5/Button_isr.c ****     Button_isr_SetPriority((uint8)Button_isr_INTC_PRIOR_NUMBER);
 114:Generated_Source\PSoC5/Button_isr.c **** 
 115:Generated_Source\PSoC5/Button_isr.c ****     /* Enable it. */
 116:Generated_Source\PSoC5/Button_isr.c ****     Button_isr_Enable();
 117:Generated_Source\PSoC5/Button_isr.c **** }
 118:Generated_Source\PSoC5/Button_isr.c **** 
 119:Generated_Source\PSoC5/Button_isr.c **** 
 120:Generated_Source\PSoC5/Button_isr.c **** /*******************************************************************************
 121:Generated_Source\PSoC5/Button_isr.c **** * Function Name: Button_isr_Stop
 122:Generated_Source\PSoC5/Button_isr.c **** ********************************************************************************
 123:Generated_Source\PSoC5/Button_isr.c **** *
 124:Generated_Source\PSoC5/Button_isr.c **** * Summary:
 125:Generated_Source\PSoC5/Button_isr.c **** *   Disables and removes the interrupt.
 126:Generated_Source\PSoC5/Button_isr.c **** *
 127:Generated_Source\PSoC5/Button_isr.c **** * Parameters:  
 128:Generated_Source\PSoC5/Button_isr.c **** *   None
 129:Generated_Source\PSoC5/Button_isr.c **** *
 130:Generated_Source\PSoC5/Button_isr.c **** * Return:
 131:Generated_Source\PSoC5/Button_isr.c **** *   None
 132:Generated_Source\PSoC5/Button_isr.c **** *
 133:Generated_Source\PSoC5/Button_isr.c **** *******************************************************************************/
 134:Generated_Source\PSoC5/Button_isr.c **** void Button_isr_Stop(void)
 135:Generated_Source\PSoC5/Button_isr.c **** {
 136:Generated_Source\PSoC5/Button_isr.c ****     /* Disable this interrupt. */
 137:Generated_Source\PSoC5/Button_isr.c ****     Button_isr_Disable();
 138:Generated_Source\PSoC5/Button_isr.c **** 
 139:Generated_Source\PSoC5/Button_isr.c ****     /* Set the ISR to point to the passive one. */
 140:Generated_Source\PSoC5/Button_isr.c ****     Button_isr_SetVector(&IntDefaultHandler);
 141:Generated_Source\PSoC5/Button_isr.c **** }
 142:Generated_Source\PSoC5/Button_isr.c **** 
 143:Generated_Source\PSoC5/Button_isr.c **** 
 144:Generated_Source\PSoC5/Button_isr.c **** /*******************************************************************************
ARM GAS  C:\Users\Gemma\AppData\Local\Temp\cczvAlEd.s 			page 4


 145:Generated_Source\PSoC5/Button_isr.c **** * Function Name: Button_isr_Interrupt
 146:Generated_Source\PSoC5/Button_isr.c **** ********************************************************************************
 147:Generated_Source\PSoC5/Button_isr.c **** *
 148:Generated_Source\PSoC5/Button_isr.c **** * Summary:
 149:Generated_Source\PSoC5/Button_isr.c **** *   The default Interrupt Service Routine for Button_isr.
 150:Generated_Source\PSoC5/Button_isr.c **** *
 151:Generated_Source\PSoC5/Button_isr.c **** *   Add custom code between the coments to keep the next version of this file
 152:Generated_Source\PSoC5/Button_isr.c **** *   from over writting your code.
 153:Generated_Source\PSoC5/Button_isr.c **** *
 154:Generated_Source\PSoC5/Button_isr.c **** * Parameters:  
 155:Generated_Source\PSoC5/Button_isr.c **** *
 156:Generated_Source\PSoC5/Button_isr.c **** * Return:
 157:Generated_Source\PSoC5/Button_isr.c **** *   None
 158:Generated_Source\PSoC5/Button_isr.c **** *
 159:Generated_Source\PSoC5/Button_isr.c **** *******************************************************************************/
 160:Generated_Source\PSoC5/Button_isr.c **** CY_ISR(Button_isr_Interrupt)
 161:Generated_Source\PSoC5/Button_isr.c **** {
  28              		.loc 1 161 0
  29              		.cfi_startproc
  30              		@ args = 0, pretend = 0, frame = 0
  31              		@ frame_needed = 0, uses_anonymous_args = 0
  32 0000 08B5     		push	{r3, lr}
  33              		.cfi_def_cfa_offset 8
  34              		.cfi_offset 3, -8
  35              		.cfi_offset 14, -4
 162:Generated_Source\PSoC5/Button_isr.c ****     #ifdef Button_isr_INTERRUPT_INTERRUPT_CALLBACK
 163:Generated_Source\PSoC5/Button_isr.c ****         Button_isr_Interrupt_InterruptCallback();
 164:Generated_Source\PSoC5/Button_isr.c ****     #endif /* Button_isr_INTERRUPT_INTERRUPT_CALLBACK */ 
 165:Generated_Source\PSoC5/Button_isr.c **** 
 166:Generated_Source\PSoC5/Button_isr.c ****     /*  Place your Interrupt code here. */
 167:Generated_Source\PSoC5/Button_isr.c ****     /* `#START Button_isr_Interrupt` */
 168:Generated_Source\PSoC5/Button_isr.c ****         UART_PutString("Interrupt event!\r\n");
  36              		.loc 1 168 0
  37 0002 0648     		ldr	r0, .L3
  38 0004 FFF7FEFF 		bl	UART_PutString
  39              	.LVL0:
 169:Generated_Source\PSoC5/Button_isr.c ****         BlueLED_Write(0);
  40              		.loc 1 169 0
  41 0008 0020     		movs	r0, #0
  42 000a FFF7FEFF 		bl	BlueLED_Write
  43              	.LVL1:
 170:Generated_Source\PSoC5/Button_isr.c ****         CyDelay(10000);
  44              		.loc 1 170 0
  45 000e 42F21070 		movw	r0, #10000
  46 0012 FFF7FEFF 		bl	CyDelay
  47              	.LVL2:
 171:Generated_Source\PSoC5/Button_isr.c ****         Button_ClearInterrupt();
  48              		.loc 1 171 0
  49 0016 FFF7FEFF 		bl	Button_ClearInterrupt
  50              	.LVL3:
  51 001a 08BD     		pop	{r3, pc}
  52              	.L4:
  53              		.align	2
  54              	.L3:
  55 001c 00000000 		.word	.LC0
  56              		.cfi_endproc
  57              	.LFE66:
ARM GAS  C:\Users\Gemma\AppData\Local\Temp\cczvAlEd.s 			page 5


  58              		.size	Button_isr_Interrupt, .-Button_isr_Interrupt
  59              		.section	.text.Button_isr_SetVector,"ax",%progbits
  60              		.align	2
  61              		.global	Button_isr_SetVector
  62              		.thumb
  63              		.thumb_func
  64              		.type	Button_isr_SetVector, %function
  65              	Button_isr_SetVector:
  66              	.LFB67:
 172:Generated_Source\PSoC5/Button_isr.c ****   
 173:Generated_Source\PSoC5/Button_isr.c ****     /* `#END` */
 174:Generated_Source\PSoC5/Button_isr.c **** }
 175:Generated_Source\PSoC5/Button_isr.c **** 
 176:Generated_Source\PSoC5/Button_isr.c **** 
 177:Generated_Source\PSoC5/Button_isr.c **** /*******************************************************************************
 178:Generated_Source\PSoC5/Button_isr.c **** * Function Name: Button_isr_SetVector
 179:Generated_Source\PSoC5/Button_isr.c **** ********************************************************************************
 180:Generated_Source\PSoC5/Button_isr.c **** *
 181:Generated_Source\PSoC5/Button_isr.c **** * Summary:
 182:Generated_Source\PSoC5/Button_isr.c **** *   Change the ISR vector for the Interrupt. Note calling Button_isr_Start
 183:Generated_Source\PSoC5/Button_isr.c **** *   will override any effect this method would have had. To set the vector 
 184:Generated_Source\PSoC5/Button_isr.c **** *   before the component has been started use Button_isr_StartEx instead.
 185:Generated_Source\PSoC5/Button_isr.c **** * 
 186:Generated_Source\PSoC5/Button_isr.c **** *   When defining ISR functions, the CY_ISR and CY_ISR_PROTO macros should be 
 187:Generated_Source\PSoC5/Button_isr.c **** *   used to provide consistent definition across compilers:
 188:Generated_Source\PSoC5/Button_isr.c **** *
 189:Generated_Source\PSoC5/Button_isr.c **** *   Function definition example:
 190:Generated_Source\PSoC5/Button_isr.c **** *   CY_ISR(MyISR)
 191:Generated_Source\PSoC5/Button_isr.c **** *   {
 192:Generated_Source\PSoC5/Button_isr.c **** *   }
 193:Generated_Source\PSoC5/Button_isr.c **** *
 194:Generated_Source\PSoC5/Button_isr.c **** *   Function prototype example:
 195:Generated_Source\PSoC5/Button_isr.c **** *     CY_ISR_PROTO(MyISR);
 196:Generated_Source\PSoC5/Button_isr.c **** *
 197:Generated_Source\PSoC5/Button_isr.c **** * Parameters:
 198:Generated_Source\PSoC5/Button_isr.c **** *   address: Address of the ISR to set in the interrupt vector table.
 199:Generated_Source\PSoC5/Button_isr.c **** *
 200:Generated_Source\PSoC5/Button_isr.c **** * Return:
 201:Generated_Source\PSoC5/Button_isr.c **** *   None
 202:Generated_Source\PSoC5/Button_isr.c **** *
 203:Generated_Source\PSoC5/Button_isr.c **** *******************************************************************************/
 204:Generated_Source\PSoC5/Button_isr.c **** void Button_isr_SetVector(cyisraddress address)
 205:Generated_Source\PSoC5/Button_isr.c **** {
  67              		.loc 1 205 0
  68              		.cfi_startproc
  69              		@ args = 0, pretend = 0, frame = 0
  70              		@ frame_needed = 0, uses_anonymous_args = 0
  71              		@ link register save eliminated.
  72              	.LVL4:
 206:Generated_Source\PSoC5/Button_isr.c ****     cyisraddress * ramVectorTable;
 207:Generated_Source\PSoC5/Button_isr.c **** 
 208:Generated_Source\PSoC5/Button_isr.c ****     ramVectorTable = (cyisraddress *) *CYINT_VECT_TABLE;
  73              		.loc 1 208 0
  74 0000 014B     		ldr	r3, .L6
  75 0002 1B68     		ldr	r3, [r3]
  76              	.LVL5:
 209:Generated_Source\PSoC5/Button_isr.c **** 
ARM GAS  C:\Users\Gemma\AppData\Local\Temp\cczvAlEd.s 			page 6


 210:Generated_Source\PSoC5/Button_isr.c ****     ramVectorTable[CYINT_IRQ_BASE + (uint32)Button_isr__INTC_NUMBER] = address;
  77              		.loc 1 210 0
  78 0004 9865     		str	r0, [r3, #88]
  79 0006 7047     		bx	lr
  80              	.L7:
  81              		.align	2
  82              	.L6:
  83 0008 08ED00E0 		.word	-536810232
  84              		.cfi_endproc
  85              	.LFE67:
  86              		.size	Button_isr_SetVector, .-Button_isr_SetVector
  87              		.section	.text.Button_isr_GetVector,"ax",%progbits
  88              		.align	2
  89              		.global	Button_isr_GetVector
  90              		.thumb
  91              		.thumb_func
  92              		.type	Button_isr_GetVector, %function
  93              	Button_isr_GetVector:
  94              	.LFB68:
 211:Generated_Source\PSoC5/Button_isr.c **** }
 212:Generated_Source\PSoC5/Button_isr.c **** 
 213:Generated_Source\PSoC5/Button_isr.c **** 
 214:Generated_Source\PSoC5/Button_isr.c **** /*******************************************************************************
 215:Generated_Source\PSoC5/Button_isr.c **** * Function Name: Button_isr_GetVector
 216:Generated_Source\PSoC5/Button_isr.c **** ********************************************************************************
 217:Generated_Source\PSoC5/Button_isr.c **** *
 218:Generated_Source\PSoC5/Button_isr.c **** * Summary:
 219:Generated_Source\PSoC5/Button_isr.c **** *   Gets the "address" of the current ISR vector for the Interrupt.
 220:Generated_Source\PSoC5/Button_isr.c **** *
 221:Generated_Source\PSoC5/Button_isr.c **** * Parameters:
 222:Generated_Source\PSoC5/Button_isr.c **** *   None
 223:Generated_Source\PSoC5/Button_isr.c **** *
 224:Generated_Source\PSoC5/Button_isr.c **** * Return:
 225:Generated_Source\PSoC5/Button_isr.c **** *   Address of the ISR in the interrupt vector table.
 226:Generated_Source\PSoC5/Button_isr.c **** *
 227:Generated_Source\PSoC5/Button_isr.c **** *******************************************************************************/
 228:Generated_Source\PSoC5/Button_isr.c **** cyisraddress Button_isr_GetVector(void)
 229:Generated_Source\PSoC5/Button_isr.c **** {
  95              		.loc 1 229 0
  96              		.cfi_startproc
  97              		@ args = 0, pretend = 0, frame = 0
  98              		@ frame_needed = 0, uses_anonymous_args = 0
  99              		@ link register save eliminated.
 230:Generated_Source\PSoC5/Button_isr.c ****     cyisraddress * ramVectorTable;
 231:Generated_Source\PSoC5/Button_isr.c **** 
 232:Generated_Source\PSoC5/Button_isr.c ****     ramVectorTable = (cyisraddress *) *CYINT_VECT_TABLE;
 100              		.loc 1 232 0
 101 0000 014B     		ldr	r3, .L9
 102 0002 1B68     		ldr	r3, [r3]
 103              	.LVL6:
 233:Generated_Source\PSoC5/Button_isr.c **** 
 234:Generated_Source\PSoC5/Button_isr.c ****     return ramVectorTable[CYINT_IRQ_BASE + (uint32)Button_isr__INTC_NUMBER];
 235:Generated_Source\PSoC5/Button_isr.c **** }
 104              		.loc 1 235 0
 105 0004 986D     		ldr	r0, [r3, #88]
 106 0006 7047     		bx	lr
 107              	.L10:
ARM GAS  C:\Users\Gemma\AppData\Local\Temp\cczvAlEd.s 			page 7


 108              		.align	2
 109              	.L9:
 110 0008 08ED00E0 		.word	-536810232
 111              		.cfi_endproc
 112              	.LFE68:
 113              		.size	Button_isr_GetVector, .-Button_isr_GetVector
 114              		.section	.text.Button_isr_SetPriority,"ax",%progbits
 115              		.align	2
 116              		.global	Button_isr_SetPriority
 117              		.thumb
 118              		.thumb_func
 119              		.type	Button_isr_SetPriority, %function
 120              	Button_isr_SetPriority:
 121              	.LFB69:
 236:Generated_Source\PSoC5/Button_isr.c **** 
 237:Generated_Source\PSoC5/Button_isr.c **** 
 238:Generated_Source\PSoC5/Button_isr.c **** /*******************************************************************************
 239:Generated_Source\PSoC5/Button_isr.c **** * Function Name: Button_isr_SetPriority
 240:Generated_Source\PSoC5/Button_isr.c **** ********************************************************************************
 241:Generated_Source\PSoC5/Button_isr.c **** *
 242:Generated_Source\PSoC5/Button_isr.c **** * Summary:
 243:Generated_Source\PSoC5/Button_isr.c **** *   Sets the Priority of the Interrupt. 
 244:Generated_Source\PSoC5/Button_isr.c **** *
 245:Generated_Source\PSoC5/Button_isr.c **** *   Note calling Button_isr_Start or Button_isr_StartEx will 
 246:Generated_Source\PSoC5/Button_isr.c **** *   override any effect this API would have had. This API should only be called
 247:Generated_Source\PSoC5/Button_isr.c **** *   after Button_isr_Start or Button_isr_StartEx has been called. 
 248:Generated_Source\PSoC5/Button_isr.c **** *   To set the initial priority for the component, use the Design-Wide Resources
 249:Generated_Source\PSoC5/Button_isr.c **** *   Interrupt Editor.
 250:Generated_Source\PSoC5/Button_isr.c **** *
 251:Generated_Source\PSoC5/Button_isr.c **** *   Note This API has no effect on Non-maskable interrupt NMI).
 252:Generated_Source\PSoC5/Button_isr.c **** *
 253:Generated_Source\PSoC5/Button_isr.c **** * Parameters:
 254:Generated_Source\PSoC5/Button_isr.c **** *   priority: Priority of the interrupt, 0 being the highest priority
 255:Generated_Source\PSoC5/Button_isr.c **** *             PSoC 3 and PSoC 5LP: Priority is from 0 to 7.
 256:Generated_Source\PSoC5/Button_isr.c **** *             PSoC 4: Priority is from 0 to 3.
 257:Generated_Source\PSoC5/Button_isr.c **** *
 258:Generated_Source\PSoC5/Button_isr.c **** * Return:
 259:Generated_Source\PSoC5/Button_isr.c **** *   None
 260:Generated_Source\PSoC5/Button_isr.c **** *
 261:Generated_Source\PSoC5/Button_isr.c **** *******************************************************************************/
 262:Generated_Source\PSoC5/Button_isr.c **** void Button_isr_SetPriority(uint8 priority)
 263:Generated_Source\PSoC5/Button_isr.c **** {
 122              		.loc 1 263 0
 123              		.cfi_startproc
 124              		@ args = 0, pretend = 0, frame = 0
 125              		@ frame_needed = 0, uses_anonymous_args = 0
 126              		@ link register save eliminated.
 127              	.LVL7:
 264:Generated_Source\PSoC5/Button_isr.c ****     *Button_isr_INTC_PRIOR = priority << 5;
 128              		.loc 1 264 0
 129 0000 4001     		lsls	r0, r0, #5
 130              	.LVL8:
 131 0002 C0B2     		uxtb	r0, r0
 132 0004 014B     		ldr	r3, .L12
 133 0006 1870     		strb	r0, [r3]
 134 0008 7047     		bx	lr
 135              	.L13:
ARM GAS  C:\Users\Gemma\AppData\Local\Temp\cczvAlEd.s 			page 8


 136 000a 00BF     		.align	2
 137              	.L12:
 138 000c 06E400E0 		.word	-536812538
 139              		.cfi_endproc
 140              	.LFE69:
 141              		.size	Button_isr_SetPriority, .-Button_isr_SetPriority
 142              		.section	.text.Button_isr_GetPriority,"ax",%progbits
 143              		.align	2
 144              		.global	Button_isr_GetPriority
 145              		.thumb
 146              		.thumb_func
 147              		.type	Button_isr_GetPriority, %function
 148              	Button_isr_GetPriority:
 149              	.LFB70:
 265:Generated_Source\PSoC5/Button_isr.c **** }
 266:Generated_Source\PSoC5/Button_isr.c **** 
 267:Generated_Source\PSoC5/Button_isr.c **** 
 268:Generated_Source\PSoC5/Button_isr.c **** /*******************************************************************************
 269:Generated_Source\PSoC5/Button_isr.c **** * Function Name: Button_isr_GetPriority
 270:Generated_Source\PSoC5/Button_isr.c **** ********************************************************************************
 271:Generated_Source\PSoC5/Button_isr.c **** *
 272:Generated_Source\PSoC5/Button_isr.c **** * Summary:
 273:Generated_Source\PSoC5/Button_isr.c **** *   Gets the Priority of the Interrupt.
 274:Generated_Source\PSoC5/Button_isr.c **** *
 275:Generated_Source\PSoC5/Button_isr.c **** * Parameters:
 276:Generated_Source\PSoC5/Button_isr.c **** *   None
 277:Generated_Source\PSoC5/Button_isr.c **** *
 278:Generated_Source\PSoC5/Button_isr.c **** * Return:
 279:Generated_Source\PSoC5/Button_isr.c **** *   Priority of the interrupt, 0 being the highest priority
 280:Generated_Source\PSoC5/Button_isr.c **** *    PSoC 3 and PSoC 5LP: Priority is from 0 to 7.
 281:Generated_Source\PSoC5/Button_isr.c **** *    PSoC 4: Priority is from 0 to 3.
 282:Generated_Source\PSoC5/Button_isr.c **** *
 283:Generated_Source\PSoC5/Button_isr.c **** *******************************************************************************/
 284:Generated_Source\PSoC5/Button_isr.c **** uint8 Button_isr_GetPriority(void)
 285:Generated_Source\PSoC5/Button_isr.c **** {
 150              		.loc 1 285 0
 151              		.cfi_startproc
 152              		@ args = 0, pretend = 0, frame = 0
 153              		@ frame_needed = 0, uses_anonymous_args = 0
 154              		@ link register save eliminated.
 286:Generated_Source\PSoC5/Button_isr.c ****     uint8 priority;
 287:Generated_Source\PSoC5/Button_isr.c **** 
 288:Generated_Source\PSoC5/Button_isr.c **** 
 289:Generated_Source\PSoC5/Button_isr.c ****     priority = *Button_isr_INTC_PRIOR >> 5;
 155              		.loc 1 289 0
 156 0000 014B     		ldr	r3, .L15
 157 0002 1878     		ldrb	r0, [r3]	@ zero_extendqisi2
 158              	.LVL9:
 290:Generated_Source\PSoC5/Button_isr.c **** 
 291:Generated_Source\PSoC5/Button_isr.c ****     return priority;
 292:Generated_Source\PSoC5/Button_isr.c **** }
 159              		.loc 1 292 0
 160 0004 4009     		lsrs	r0, r0, #5
 161              	.LVL10:
 162 0006 7047     		bx	lr
 163              	.L16:
 164              		.align	2
ARM GAS  C:\Users\Gemma\AppData\Local\Temp\cczvAlEd.s 			page 9


 165              	.L15:
 166 0008 06E400E0 		.word	-536812538
 167              		.cfi_endproc
 168              	.LFE70:
 169              		.size	Button_isr_GetPriority, .-Button_isr_GetPriority
 170              		.section	.text.Button_isr_Enable,"ax",%progbits
 171              		.align	2
 172              		.global	Button_isr_Enable
 173              		.thumb
 174              		.thumb_func
 175              		.type	Button_isr_Enable, %function
 176              	Button_isr_Enable:
 177              	.LFB71:
 293:Generated_Source\PSoC5/Button_isr.c **** 
 294:Generated_Source\PSoC5/Button_isr.c **** 
 295:Generated_Source\PSoC5/Button_isr.c **** /*******************************************************************************
 296:Generated_Source\PSoC5/Button_isr.c **** * Function Name: Button_isr_Enable
 297:Generated_Source\PSoC5/Button_isr.c **** ********************************************************************************
 298:Generated_Source\PSoC5/Button_isr.c **** *
 299:Generated_Source\PSoC5/Button_isr.c **** * Summary:
 300:Generated_Source\PSoC5/Button_isr.c **** *   Enables the interrupt to the interrupt controller. Do not call this function
 301:Generated_Source\PSoC5/Button_isr.c **** *   unless ISR_Start() has been called or the functionality of the ISR_Start() 
 302:Generated_Source\PSoC5/Button_isr.c **** *   function, which sets the vector and the priority, has been called.
 303:Generated_Source\PSoC5/Button_isr.c **** *
 304:Generated_Source\PSoC5/Button_isr.c **** * Parameters:
 305:Generated_Source\PSoC5/Button_isr.c **** *   None
 306:Generated_Source\PSoC5/Button_isr.c **** *
 307:Generated_Source\PSoC5/Button_isr.c **** * Return:
 308:Generated_Source\PSoC5/Button_isr.c **** *   None
 309:Generated_Source\PSoC5/Button_isr.c **** *
 310:Generated_Source\PSoC5/Button_isr.c **** *******************************************************************************/
 311:Generated_Source\PSoC5/Button_isr.c **** void Button_isr_Enable(void)
 312:Generated_Source\PSoC5/Button_isr.c **** {
 178              		.loc 1 312 0
 179              		.cfi_startproc
 180              		@ args = 0, pretend = 0, frame = 0
 181              		@ frame_needed = 0, uses_anonymous_args = 0
 182              		@ link register save eliminated.
 313:Generated_Source\PSoC5/Button_isr.c ****     /* Enable the general interrupt. */
 314:Generated_Source\PSoC5/Button_isr.c ****     *Button_isr_INTC_SET_EN = Button_isr__INTC_MASK;
 183              		.loc 1 314 0
 184 0000 4022     		movs	r2, #64
 185 0002 014B     		ldr	r3, .L18
 186 0004 1A60     		str	r2, [r3]
 187 0006 7047     		bx	lr
 188              	.L19:
 189              		.align	2
 190              	.L18:
 191 0008 00E100E0 		.word	-536813312
 192              		.cfi_endproc
 193              	.LFE71:
 194              		.size	Button_isr_Enable, .-Button_isr_Enable
 195              		.section	.text.Button_isr_GetState,"ax",%progbits
 196              		.align	2
 197              		.global	Button_isr_GetState
 198              		.thumb
 199              		.thumb_func
ARM GAS  C:\Users\Gemma\AppData\Local\Temp\cczvAlEd.s 			page 10


 200              		.type	Button_isr_GetState, %function
 201              	Button_isr_GetState:
 202              	.LFB72:
 315:Generated_Source\PSoC5/Button_isr.c **** }
 316:Generated_Source\PSoC5/Button_isr.c **** 
 317:Generated_Source\PSoC5/Button_isr.c **** 
 318:Generated_Source\PSoC5/Button_isr.c **** /*******************************************************************************
 319:Generated_Source\PSoC5/Button_isr.c **** * Function Name: Button_isr_GetState
 320:Generated_Source\PSoC5/Button_isr.c **** ********************************************************************************
 321:Generated_Source\PSoC5/Button_isr.c **** *
 322:Generated_Source\PSoC5/Button_isr.c **** * Summary:
 323:Generated_Source\PSoC5/Button_isr.c **** *   Gets the state (enabled, disabled) of the Interrupt.
 324:Generated_Source\PSoC5/Button_isr.c **** *
 325:Generated_Source\PSoC5/Button_isr.c **** * Parameters:
 326:Generated_Source\PSoC5/Button_isr.c **** *   None
 327:Generated_Source\PSoC5/Button_isr.c **** *
 328:Generated_Source\PSoC5/Button_isr.c **** * Return:
 329:Generated_Source\PSoC5/Button_isr.c **** *   1 if enabled, 0 if disabled.
 330:Generated_Source\PSoC5/Button_isr.c **** *
 331:Generated_Source\PSoC5/Button_isr.c **** *******************************************************************************/
 332:Generated_Source\PSoC5/Button_isr.c **** uint8 Button_isr_GetState(void)
 333:Generated_Source\PSoC5/Button_isr.c **** {
 203              		.loc 1 333 0
 204              		.cfi_startproc
 205              		@ args = 0, pretend = 0, frame = 0
 206              		@ frame_needed = 0, uses_anonymous_args = 0
 207              		@ link register save eliminated.
 334:Generated_Source\PSoC5/Button_isr.c ****     /* Get the state of the general interrupt. */
 335:Generated_Source\PSoC5/Button_isr.c ****     return ((*Button_isr_INTC_SET_EN & (uint32)Button_isr__INTC_MASK) != 0u) ? 1u:0u;
 208              		.loc 1 335 0
 209 0000 044B     		ldr	r3, .L23
 210 0002 1B68     		ldr	r3, [r3]
 211 0004 13F0400F 		tst	r3, #64
 212 0008 01D0     		beq	.L22
 213 000a 0120     		movs	r0, #1
 214 000c 7047     		bx	lr
 215              	.L22:
 216 000e 0020     		movs	r0, #0
 336:Generated_Source\PSoC5/Button_isr.c **** }
 217              		.loc 1 336 0
 218 0010 7047     		bx	lr
 219              	.L24:
 220 0012 00BF     		.align	2
 221              	.L23:
 222 0014 00E100E0 		.word	-536813312
 223              		.cfi_endproc
 224              	.LFE72:
 225              		.size	Button_isr_GetState, .-Button_isr_GetState
 226              		.section	.text.Button_isr_Disable,"ax",%progbits
 227              		.align	2
 228              		.global	Button_isr_Disable
 229              		.thumb
 230              		.thumb_func
 231              		.type	Button_isr_Disable, %function
 232              	Button_isr_Disable:
 233              	.LFB73:
 337:Generated_Source\PSoC5/Button_isr.c **** 
ARM GAS  C:\Users\Gemma\AppData\Local\Temp\cczvAlEd.s 			page 11


 338:Generated_Source\PSoC5/Button_isr.c **** 
 339:Generated_Source\PSoC5/Button_isr.c **** /*******************************************************************************
 340:Generated_Source\PSoC5/Button_isr.c **** * Function Name: Button_isr_Disable
 341:Generated_Source\PSoC5/Button_isr.c **** ********************************************************************************
 342:Generated_Source\PSoC5/Button_isr.c **** *
 343:Generated_Source\PSoC5/Button_isr.c **** * Summary:
 344:Generated_Source\PSoC5/Button_isr.c **** *   Disables the Interrupt in the interrupt controller.
 345:Generated_Source\PSoC5/Button_isr.c **** *
 346:Generated_Source\PSoC5/Button_isr.c **** * Parameters:
 347:Generated_Source\PSoC5/Button_isr.c **** *   None
 348:Generated_Source\PSoC5/Button_isr.c **** *
 349:Generated_Source\PSoC5/Button_isr.c **** * Return:
 350:Generated_Source\PSoC5/Button_isr.c **** *   None
 351:Generated_Source\PSoC5/Button_isr.c **** *
 352:Generated_Source\PSoC5/Button_isr.c **** *******************************************************************************/
 353:Generated_Source\PSoC5/Button_isr.c **** void Button_isr_Disable(void)
 354:Generated_Source\PSoC5/Button_isr.c **** {
 234              		.loc 1 354 0
 235              		.cfi_startproc
 236              		@ args = 0, pretend = 0, frame = 0
 237              		@ frame_needed = 0, uses_anonymous_args = 0
 238              		@ link register save eliminated.
 355:Generated_Source\PSoC5/Button_isr.c ****     /* Disable the general interrupt. */
 356:Generated_Source\PSoC5/Button_isr.c ****     *Button_isr_INTC_CLR_EN = Button_isr__INTC_MASK;
 239              		.loc 1 356 0
 240 0000 4022     		movs	r2, #64
 241 0002 014B     		ldr	r3, .L26
 242 0004 1A60     		str	r2, [r3]
 243 0006 7047     		bx	lr
 244              	.L27:
 245              		.align	2
 246              	.L26:
 247 0008 80E100E0 		.word	-536813184
 248              		.cfi_endproc
 249              	.LFE73:
 250              		.size	Button_isr_Disable, .-Button_isr_Disable
 251              		.section	.text.Button_isr_Start,"ax",%progbits
 252              		.align	2
 253              		.global	Button_isr_Start
 254              		.thumb
 255              		.thumb_func
 256              		.type	Button_isr_Start, %function
 257              	Button_isr_Start:
 258              	.LFB63:
  62:Generated_Source\PSoC5/Button_isr.c ****     /* For all we know the interrupt is active. */
 259              		.loc 1 62 0
 260              		.cfi_startproc
 261              		@ args = 0, pretend = 0, frame = 0
 262              		@ frame_needed = 0, uses_anonymous_args = 0
 263 0000 08B5     		push	{r3, lr}
 264              		.cfi_def_cfa_offset 8
 265              		.cfi_offset 3, -8
 266              		.cfi_offset 14, -4
  64:Generated_Source\PSoC5/Button_isr.c **** 
 267              		.loc 1 64 0
 268 0002 FFF7FEFF 		bl	Button_isr_Disable
 269              	.LVL11:
ARM GAS  C:\Users\Gemma\AppData\Local\Temp\cczvAlEd.s 			page 12


  67:Generated_Source\PSoC5/Button_isr.c **** 
 270              		.loc 1 67 0
 271 0006 0448     		ldr	r0, .L30
 272 0008 FFF7FEFF 		bl	Button_isr_SetVector
 273              	.LVL12:
  70:Generated_Source\PSoC5/Button_isr.c **** 
 274              		.loc 1 70 0
 275 000c 0720     		movs	r0, #7
 276 000e FFF7FEFF 		bl	Button_isr_SetPriority
 277              	.LVL13:
  73:Generated_Source\PSoC5/Button_isr.c **** }
 278              		.loc 1 73 0
 279 0012 FFF7FEFF 		bl	Button_isr_Enable
 280              	.LVL14:
 281 0016 08BD     		pop	{r3, pc}
 282              	.L31:
 283              		.align	2
 284              	.L30:
 285 0018 00000000 		.word	Button_isr_Interrupt
 286              		.cfi_endproc
 287              	.LFE63:
 288              		.size	Button_isr_Start, .-Button_isr_Start
 289              		.section	.text.Button_isr_StartEx,"ax",%progbits
 290              		.align	2
 291              		.global	Button_isr_StartEx
 292              		.thumb
 293              		.thumb_func
 294              		.type	Button_isr_StartEx, %function
 295              	Button_isr_StartEx:
 296              	.LFB64:
 105:Generated_Source\PSoC5/Button_isr.c ****     /* For all we know the interrupt is active. */
 297              		.loc 1 105 0
 298              		.cfi_startproc
 299              		@ args = 0, pretend = 0, frame = 0
 300              		@ frame_needed = 0, uses_anonymous_args = 0
 301              	.LVL15:
 302 0000 10B5     		push	{r4, lr}
 303              		.cfi_def_cfa_offset 8
 304              		.cfi_offset 4, -8
 305              		.cfi_offset 14, -4
 306 0002 0446     		mov	r4, r0
 107:Generated_Source\PSoC5/Button_isr.c **** 
 307              		.loc 1 107 0
 308 0004 FFF7FEFF 		bl	Button_isr_Disable
 309              	.LVL16:
 110:Generated_Source\PSoC5/Button_isr.c **** 
 310              		.loc 1 110 0
 311 0008 2046     		mov	r0, r4
 312 000a FFF7FEFF 		bl	Button_isr_SetVector
 313              	.LVL17:
 113:Generated_Source\PSoC5/Button_isr.c **** 
 314              		.loc 1 113 0
 315 000e 0720     		movs	r0, #7
 316 0010 FFF7FEFF 		bl	Button_isr_SetPriority
 317              	.LVL18:
 116:Generated_Source\PSoC5/Button_isr.c **** }
 318              		.loc 1 116 0
ARM GAS  C:\Users\Gemma\AppData\Local\Temp\cczvAlEd.s 			page 13


 319 0014 FFF7FEFF 		bl	Button_isr_Enable
 320              	.LVL19:
 321 0018 10BD     		pop	{r4, pc}
 322              		.cfi_endproc
 323              	.LFE64:
 324              		.size	Button_isr_StartEx, .-Button_isr_StartEx
 325 001a 00BF     		.section	.text.Button_isr_Stop,"ax",%progbits
 326              		.align	2
 327              		.global	Button_isr_Stop
 328              		.thumb
 329              		.thumb_func
 330              		.type	Button_isr_Stop, %function
 331              	Button_isr_Stop:
 332              	.LFB65:
 135:Generated_Source\PSoC5/Button_isr.c ****     /* Disable this interrupt. */
 333              		.loc 1 135 0
 334              		.cfi_startproc
 335              		@ args = 0, pretend = 0, frame = 0
 336              		@ frame_needed = 0, uses_anonymous_args = 0
 337 0000 08B5     		push	{r3, lr}
 338              		.cfi_def_cfa_offset 8
 339              		.cfi_offset 3, -8
 340              		.cfi_offset 14, -4
 137:Generated_Source\PSoC5/Button_isr.c **** 
 341              		.loc 1 137 0
 342 0002 FFF7FEFF 		bl	Button_isr_Disable
 343              	.LVL20:
 140:Generated_Source\PSoC5/Button_isr.c **** }
 344              		.loc 1 140 0
 345 0006 0248     		ldr	r0, .L36
 346 0008 FFF7FEFF 		bl	Button_isr_SetVector
 347              	.LVL21:
 348 000c 08BD     		pop	{r3, pc}
 349              	.L37:
 350 000e 00BF     		.align	2
 351              	.L36:
 352 0010 00000000 		.word	IntDefaultHandler
 353              		.cfi_endproc
 354              	.LFE65:
 355              		.size	Button_isr_Stop, .-Button_isr_Stop
 356              		.section	.text.Button_isr_SetPending,"ax",%progbits
 357              		.align	2
 358              		.global	Button_isr_SetPending
 359              		.thumb
 360              		.thumb_func
 361              		.type	Button_isr_SetPending, %function
 362              	Button_isr_SetPending:
 363              	.LFB74:
 357:Generated_Source\PSoC5/Button_isr.c **** }
 358:Generated_Source\PSoC5/Button_isr.c **** 
 359:Generated_Source\PSoC5/Button_isr.c **** 
 360:Generated_Source\PSoC5/Button_isr.c **** /*******************************************************************************
 361:Generated_Source\PSoC5/Button_isr.c **** * Function Name: Button_isr_SetPending
 362:Generated_Source\PSoC5/Button_isr.c **** ********************************************************************************
 363:Generated_Source\PSoC5/Button_isr.c **** *
 364:Generated_Source\PSoC5/Button_isr.c **** * Summary:
 365:Generated_Source\PSoC5/Button_isr.c **** *   Causes the Interrupt to enter the pending state, a software method of
ARM GAS  C:\Users\Gemma\AppData\Local\Temp\cczvAlEd.s 			page 14


 366:Generated_Source\PSoC5/Button_isr.c **** *   generating the interrupt.
 367:Generated_Source\PSoC5/Button_isr.c **** *
 368:Generated_Source\PSoC5/Button_isr.c **** * Parameters:
 369:Generated_Source\PSoC5/Button_isr.c **** *   None
 370:Generated_Source\PSoC5/Button_isr.c **** *
 371:Generated_Source\PSoC5/Button_isr.c **** * Return:
 372:Generated_Source\PSoC5/Button_isr.c **** *   None
 373:Generated_Source\PSoC5/Button_isr.c **** *
 374:Generated_Source\PSoC5/Button_isr.c **** * Side Effects:
 375:Generated_Source\PSoC5/Button_isr.c **** *   If interrupts are enabled and the interrupt is set up properly, the ISR is
 376:Generated_Source\PSoC5/Button_isr.c **** *   entered (depending on the priority of this interrupt and other pending 
 377:Generated_Source\PSoC5/Button_isr.c **** *   interrupts).
 378:Generated_Source\PSoC5/Button_isr.c **** *
 379:Generated_Source\PSoC5/Button_isr.c **** *******************************************************************************/
 380:Generated_Source\PSoC5/Button_isr.c **** void Button_isr_SetPending(void)
 381:Generated_Source\PSoC5/Button_isr.c **** {
 364              		.loc 1 381 0
 365              		.cfi_startproc
 366              		@ args = 0, pretend = 0, frame = 0
 367              		@ frame_needed = 0, uses_anonymous_args = 0
 368              		@ link register save eliminated.
 382:Generated_Source\PSoC5/Button_isr.c ****     *Button_isr_INTC_SET_PD = Button_isr__INTC_MASK;
 369              		.loc 1 382 0
 370 0000 4022     		movs	r2, #64
 371 0002 014B     		ldr	r3, .L39
 372 0004 1A60     		str	r2, [r3]
 373 0006 7047     		bx	lr
 374              	.L40:
 375              		.align	2
 376              	.L39:
 377 0008 00E200E0 		.word	-536813056
 378              		.cfi_endproc
 379              	.LFE74:
 380              		.size	Button_isr_SetPending, .-Button_isr_SetPending
 381              		.section	.text.Button_isr_ClearPending,"ax",%progbits
 382              		.align	2
 383              		.global	Button_isr_ClearPending
 384              		.thumb
 385              		.thumb_func
 386              		.type	Button_isr_ClearPending, %function
 387              	Button_isr_ClearPending:
 388              	.LFB75:
 383:Generated_Source\PSoC5/Button_isr.c **** }
 384:Generated_Source\PSoC5/Button_isr.c **** 
 385:Generated_Source\PSoC5/Button_isr.c **** 
 386:Generated_Source\PSoC5/Button_isr.c **** /*******************************************************************************
 387:Generated_Source\PSoC5/Button_isr.c **** * Function Name: Button_isr_ClearPending
 388:Generated_Source\PSoC5/Button_isr.c **** ********************************************************************************
 389:Generated_Source\PSoC5/Button_isr.c **** *
 390:Generated_Source\PSoC5/Button_isr.c **** * Summary:
 391:Generated_Source\PSoC5/Button_isr.c **** *   Clears a pending interrupt in the interrupt controller.
 392:Generated_Source\PSoC5/Button_isr.c **** *
 393:Generated_Source\PSoC5/Button_isr.c **** *   Note Some interrupt sources are clear-on-read and require the block 
 394:Generated_Source\PSoC5/Button_isr.c **** *   interrupt/status register to be read/cleared with the appropriate block API 
 395:Generated_Source\PSoC5/Button_isr.c **** *   (GPIO, UART, and so on). Otherwise the ISR will continue to remain in 
 396:Generated_Source\PSoC5/Button_isr.c **** *   pending state even though the interrupt itself is cleared using this API.
 397:Generated_Source\PSoC5/Button_isr.c **** *
ARM GAS  C:\Users\Gemma\AppData\Local\Temp\cczvAlEd.s 			page 15


 398:Generated_Source\PSoC5/Button_isr.c **** * Parameters:
 399:Generated_Source\PSoC5/Button_isr.c **** *   None
 400:Generated_Source\PSoC5/Button_isr.c **** *
 401:Generated_Source\PSoC5/Button_isr.c **** * Return:
 402:Generated_Source\PSoC5/Button_isr.c **** *   None
 403:Generated_Source\PSoC5/Button_isr.c **** *
 404:Generated_Source\PSoC5/Button_isr.c **** *******************************************************************************/
 405:Generated_Source\PSoC5/Button_isr.c **** void Button_isr_ClearPending(void)
 406:Generated_Source\PSoC5/Button_isr.c **** {
 389              		.loc 1 406 0
 390              		.cfi_startproc
 391              		@ args = 0, pretend = 0, frame = 0
 392              		@ frame_needed = 0, uses_anonymous_args = 0
 393              		@ link register save eliminated.
 407:Generated_Source\PSoC5/Button_isr.c ****     *Button_isr_INTC_CLR_PD = Button_isr__INTC_MASK;
 394              		.loc 1 407 0
 395 0000 4022     		movs	r2, #64
 396 0002 014B     		ldr	r3, .L42
 397 0004 1A60     		str	r2, [r3]
 398 0006 7047     		bx	lr
 399              	.L43:
 400              		.align	2
 401              	.L42:
 402 0008 80E200E0 		.word	-536812928
 403              		.cfi_endproc
 404              	.LFE75:
 405              		.size	Button_isr_ClearPending, .-Button_isr_ClearPending
 406              		.section	.rodata.str1.4,"aMS",%progbits,1
 407              		.align	2
 408              	.LC0:
 409 0000 496E7465 		.ascii	"Interrupt event!\015\012\000"
 409      72727570 
 409      74206576 
 409      656E7421 
 409      0D0A00
 410              		.text
 411              	.Letext0:
 412              		.file 2 "c:\\program files (x86)\\cypress\\psoc creator\\4.2\\psoc creator\\import\\gnu\\arm\\5.4.
 413              		.file 3 "c:\\program files (x86)\\cypress\\psoc creator\\4.2\\psoc creator\\import\\gnu\\arm\\5.4.
 414              		.file 4 "Generated_Source\\PSoC5/cytypes.h"
 415              		.file 5 "Generated_Source\\PSoC5\\UART.h"
 416              		.file 6 "Generated_Source\\PSoC5\\BlueLED.h"
 417              		.file 7 "Generated_Source\\PSoC5/CyLib.h"
 418              		.file 8 "Generated_Source\\PSoC5\\Button.h"
 419              		.file 9 "Generated_Source\\PSoC5/core_cm3.h"