ARM GAS  C:\Users\Gemma\AppData\Local\Temp\cczmoVOE.s 			page 1


   1              		.syntax unified
   2              		.cpu cortex-m3
   3              		.fpu softvfp
   4              		.eabi_attribute 20, 1
   5              		.eabi_attribute 21, 1
   6              		.eabi_attribute 23, 3
   7              		.eabi_attribute 24, 1
   8              		.eabi_attribute 25, 1
   9              		.eabi_attribute 26, 1
  10              		.eabi_attribute 30, 6
  11              		.eabi_attribute 34, 1
  12              		.eabi_attribute 18, 4
  13              		.thumb
  14              		.syntax unified
  15              		.file	"main.c"
  16              		.text
  17              	.Ltext0:
  18              		.cfi_sections	.debug_frame
  19              		.global	new_data
  20              		.bss
  21              		.type	new_data, %object
  22              		.size	new_data, 1
  23              	new_data:
  24 0000 00       		.space	1
  25              		.global	Vout_sum
  26 0001 000000   		.align	2
  27              		.type	Vout_sum, %object
  28              		.size	Vout_sum, 4
  29              	Vout_sum:
  30 0004 00000000 		.space	4
  31              		.global	n
  32              		.align	2
  33              		.type	n, %object
  34              		.size	n, 4
  35              	n:
  36 0008 00000000 		.space	4
  37              		.global	Vout_sum_isr
  38              		.align	2
  39              		.type	Vout_sum_isr, %object
  40              		.size	Vout_sum_isr, 4
  41              	Vout_sum_isr:
  42 000c 00000000 		.space	4
  43              		.global	n_isr
  44              		.align	2
  45              		.type	n_isr, %object
  46              		.size	n_isr, 4
  47              	n_isr:
  48 0010 00000000 		.space	4
  49              		.global	temp
  50              		.align	2
  51              		.type	temp, %object
  52              		.size	temp, 4
  53              	temp:
  54 0014 00000000 		.space	4
  55              		.comm	Vout_average,4,4
  56              		.section	.rodata
  57              		.align	2
ARM GAS  C:\Users\Gemma\AppData\Local\Temp\cczmoVOE.s 			page 2


  58              	.LC0:
  59 0000 434F4D20 		.ascii	"COM Port Open\015\012\000"
  59      506F7274 
  59      204F7065 
  59      6E0D0A00 
  60              		.global	__aeabi_f2iz
  61              		.global	__aeabi_f2d
  62              		.global	__aeabi_ui2f
  63              		.global	__aeabi_fdiv
  64              		.align	2
  65              	.LC1:
  66 0010 7B202241 		.ascii	"{ \"ADC\": %d , \"LM35\": %.1f, \"TC74\": %d, \"SPI"
  66      4443223A 
  66      20256420 
  66      2C20224C 
  66      4D333522 
  67 003c 223A2025 		.ascii	"\": %.1f }\015\012\000"
  67      2E316620 
  67      7D0D0A00 
  68              		.section	.text.main,"ax",%progbits
  69              		.align	2
  70              		.global	main
  71              		.thumb
  72              		.thumb_func
  73              		.type	main, %function
  74              	main:
  75              	.LFB64:
  76              		.file 1 "main.c"
   1:main.c        **** /* ================================================================
   2:main.c        ****  *
   3:main.c        ****  * Copyright: Gemma Qin,  Metropolia UAS, Finland, 2024
   4:main.c        ****  *
   5:main.c        ****  * PSoC Design Course 2024: Exercise 4, SPI & I2C
   6:main.c        ****  *
   7:main.c        ****  * Connect digital temperature sensors to PSoC via I2C and SPI, 
   8:main.c        ****  * and transfer the data to computer via UART. 
   9:main.c        ****  *
  10:main.c        ****  * ================================================================
  11:main.c        **** */
  12:main.c        **** 
  13:main.c        **** #include <project.h>
  14:main.c        **** #include "stdio.h"
  15:main.c        **** 
  16:main.c        **** /* Project Defines */
  17:main.c        **** #define TRANSMIT_BUFFER_SIZE 64
  18:main.c        **** 
  19:main.c        **** /* Global variables */
  20:main.c        **** // Flag for data transmission:
  21:main.c        **** volatile uint8 new_data = 0;   
  22:main.c        **** 
  23:main.c        **** // Running average related variables:
  24:main.c        **** uint32 Vout_sum = 0;
  25:main.c        **** uint32 n = 0;
  26:main.c        **** uint32 Vout_sum_isr = 0;
  27:main.c        **** uint32 n_isr = 0;
  28:main.c        **** 
  29:main.c        **** // Data to be transmitted:
ARM GAS  C:\Users\Gemma\AppData\Local\Temp\cczmoVOE.s 			page 3


  30:main.c        **** float32 temp = 0;
  31:main.c        **** float32 Vout_average;
  32:main.c        **** 
  33:main.c        **** /* Function declarations */
  34:main.c        **** void tempCalc();
  35:main.c        **** 
  36:main.c        **** /* Interrupt declarations */
  37:main.c        **** CY_ISR_PROTO(MyADCIsr);
  38:main.c        **** CY_ISR(MyClockIsr);
  39:main.c        **** 
  40:main.c        **** /*******************************************************************************
  41:main.c        **** * Function Name: main
  42:main.c        **** ********************************************************************************
  43:main.c        **** *
  44:main.c        **** * Summary:
  45:main.c        **** *  Initialises components and interrupts.
  46:main.c        **** *  Reads data from two temperature sensors using I2C and SPI interfaces.
  47:main.c        **** *  Transmit read data via UART.
  48:main.c        **** *
  49:main.c        **** * Parameters:
  50:main.c        **** *  None.
  51:main.c        **** *
  52:main.c        **** * Return:
  53:main.c        **** *  None.
  54:main.c        **** *
  55:main.c        **** * Remarks: 
  56:main.c        **** *  - Specification: 
  57:main.c        **** *       - UART: 12[6] RX, 12[7] TX, 115200 bps
  58:main.c        **** *       - I2C: 12[0] SCL, 12[1] SDA (different from exercise description, 
  59:main.c        **** *              followed datasheet recommendation), I2C_CLK 800kHz
  60:main.c        **** *       - SPI: 12[3] SS, 12[4] MISO, 12[5] SCLK, SPI_CLK 1.6 MHz, 16-bit
  61:main.c        **** *  - Design works without external pull up resistor, internal pull up resistor 
  62:main.c        ****      of 5 kOhm resolves same matter.
  63:main.c        **** *
  64:main.c        **** *******************************************************************************/
  65:main.c        **** int main()
  66:main.c        **** {
  77              		.loc 1 66 0
  78              		.cfi_startproc
  79              		@ args = 0, pretend = 0, frame = 80
  80              		@ frame_needed = 1, uses_anonymous_args = 0
  81 0000 2DE9F041 		push	{r4, r5, r6, r7, r8, lr}
  82              		.cfi_def_cfa_offset 24
  83              		.cfi_offset 4, -24
  84              		.cfi_offset 5, -20
  85              		.cfi_offset 6, -16
  86              		.cfi_offset 7, -12
  87              		.cfi_offset 8, -8
  88              		.cfi_offset 14, -4
  89 0004 9AB0     		sub	sp, sp, #104
  90              		.cfi_def_cfa_offset 128
  91 0006 06AF     		add	r7, sp, #24
  92              		.cfi_def_cfa 7, 104
  67:main.c        ****     CyGlobalIntEnable; /* Enable global interrupts. */
  93              		.loc 1 67 0
  94              		.syntax unified
  95              	@ 67 "main.c" 1
ARM GAS  C:\Users\Gemma\AppData\Local\Temp\cczmoVOE.s 			page 4


  96 0008 62B6     		CPSIE   i
  97              	@ 0 "" 2
  68:main.c        ****     
  69:main.c        ****     /* Local variables */
  70:main.c        ****     // UART
  71:main.c        ****     char transmit_buffer[TRANSMIT_BUFFER_SIZE];
  72:main.c        ****     // SPI
  73:main.c        ****     uint16 SPIM_value = 0x0000;
  98              		.loc 1 73 0
  99              		.thumb
 100              		.syntax unified
 101 000a 0023     		movs	r3, #0
 102 000c A7F84E30 		strh	r3, [r7, #78]	@ movhi
  74:main.c        ****     float32 SPIM_temp;
  75:main.c        ****     // I2C
  76:main.c        ****     const int TC74_addr = 0x4a;
 103              		.loc 1 76 0
 104 0010 4A23     		movs	r3, #74
 105 0012 BB64     		str	r3, [r7, #72]
  77:main.c        ****     uint8 TC74_value;
  78:main.c        ****     uint8 status;
  79:main.c        **** 
  80:main.c        ****     /* Start the components and interrupts */
  81:main.c        ****     UART_Start();
 106              		.loc 1 81 0
 107 0014 FFF7FEFF 		bl	UART_Start
  82:main.c        ****     SPIM_Start();
 108              		.loc 1 82 0
 109 0018 FFF7FEFF 		bl	SPIM_Start
  83:main.c        ****     I2C_Start();
 110              		.loc 1 83 0
 111 001c FFF7FEFF 		bl	I2C_Start
  84:main.c        ****     ADC_DelSig_Start();
 112              		.loc 1 84 0
 113 0020 FFF7FEFF 		bl	ADC_DelSig_Start
  85:main.c        ****     Timer_Start();
 114              		.loc 1 85 0
 115 0024 FFF7FEFF 		bl	Timer_Start
  86:main.c        ****     
  87:main.c        ****     ADC_Isr_StartEx(MyADCIsr);
 116              		.loc 1 87 0
 117 0028 4448     		ldr	r0, .L5
 118 002a FFF7FEFF 		bl	ADC_Isr_StartEx
  88:main.c        ****     Clock_Isr_StartEx(MyClockIsr);
 119              		.loc 1 88 0
 120 002e 4448     		ldr	r0, .L5+4
 121 0030 FFF7FEFF 		bl	Clock_Isr_StartEx
  89:main.c        **** 
  90:main.c        ****     /* Send message to verify COM port is connected properly */
  91:main.c        ****     UART_PutString("COM Port Open\r\n");    
 122              		.loc 1 91 0
 123 0034 4348     		ldr	r0, .L5+8
 124 0036 FFF7FEFF 		bl	UART_PutString
  92:main.c        ****     
  93:main.c        ****     /* Start the ADC conversion */
  94:main.c        ****     ADC_DelSig_StartConvert();
 125              		.loc 1 94 0
ARM GAS  C:\Users\Gemma\AppData\Local\Temp\cczmoVOE.s 			page 5


 126 003a FFF7FEFF 		bl	ADC_DelSig_StartConvert
 127              	.L4:
  95:main.c        **** 
  96:main.c        ****     for(;;)
  97:main.c        ****     {   
  98:main.c        ****         /* When Timer Isr called */
  99:main.c        ****         if (new_data) {
 128              		.loc 1 99 0
 129 003e 424B     		ldr	r3, .L5+12
 130 0040 1B78     		ldrb	r3, [r3]
 131 0042 DBB2     		uxtb	r3, r3
 132 0044 002B     		cmp	r3, #0
 133 0046 FAD0     		beq	.L4
 100:main.c        ****             /* Data acquisition from SPI, initalization */ 
 101:main.c        ****             SPIM_WriteTxData(SPIM_value);
 134              		.loc 1 101 0
 135 0048 B7F84E30 		ldrh	r3, [r7, #78]
 136 004c 1846     		mov	r0, r3
 137 004e FFF7FEFF 		bl	SPIM_WriteTxData
 102:main.c        **** 
 103:main.c        ****             /* Data acquisition from I2C */ 
 104:main.c        ****             TC74_value = UINT8_MAX; // Error value in case it cannot read
 138              		.loc 1 104 0
 139 0052 FF23     		movs	r3, #255
 140 0054 87F84D30 		strb	r3, [r7, #77]
 105:main.c        ****             status = I2C_MasterSendStart(TC74_addr, I2C_WRITE_XFER_MODE);
 141              		.loc 1 105 0
 142 0058 BB6C     		ldr	r3, [r7, #72]
 143 005a DBB2     		uxtb	r3, r3
 144 005c 0021     		movs	r1, #0
 145 005e 1846     		mov	r0, r3
 146 0060 FFF7FEFF 		bl	I2C_MasterSendStart
 147 0064 0346     		mov	r3, r0
 148 0066 87F84730 		strb	r3, [r7, #71]
 106:main.c        ****             if ((status & I2C_MSTAT_ERR_MASK) == 0) {
 149              		.loc 1 106 0
 150 006a 97F84730 		ldrb	r3, [r7, #71]	@ zero_extendqisi2
 151 006e 03F0F003 		and	r3, r3, #240
 152 0072 002B     		cmp	r3, #0
 153 0074 20D1     		bne	.L3
 107:main.c        ****                 status = I2C_MasterWriteByte(0x00);
 154              		.loc 1 107 0
 155 0076 0020     		movs	r0, #0
 156 0078 FFF7FEFF 		bl	I2C_MasterWriteByte
 157 007c 0346     		mov	r3, r0
 158 007e 87F84730 		strb	r3, [r7, #71]
 108:main.c        ****                 if ((status & I2C_MSTAT_ERR_MASK) == 0) {
 159              		.loc 1 108 0
 160 0082 97F84730 		ldrb	r3, [r7, #71]	@ zero_extendqisi2
 161 0086 03F0F003 		and	r3, r3, #240
 162 008a 002B     		cmp	r3, #0
 163 008c 14D1     		bne	.L3
 109:main.c        ****                     status = I2C_MasterSendRestart(TC74_addr, I2C_READ_XFER_MODE);
 164              		.loc 1 109 0
 165 008e BB6C     		ldr	r3, [r7, #72]
 166 0090 DBB2     		uxtb	r3, r3
 167 0092 0121     		movs	r1, #1
ARM GAS  C:\Users\Gemma\AppData\Local\Temp\cczmoVOE.s 			page 6


 168 0094 1846     		mov	r0, r3
 169 0096 FFF7FEFF 		bl	I2C_MasterSendRestart
 170 009a 0346     		mov	r3, r0
 171 009c 87F84730 		strb	r3, [r7, #71]
 110:main.c        ****                     if ((status & I2C_MSTAT_ERR_MASK) == 0) {
 172              		.loc 1 110 0
 173 00a0 97F84730 		ldrb	r3, [r7, #71]	@ zero_extendqisi2
 174 00a4 03F0F003 		and	r3, r3, #240
 175 00a8 002B     		cmp	r3, #0
 176 00aa 05D1     		bne	.L3
 111:main.c        ****                         TC74_value = I2C_MasterReadByte(I2C_NAK_DATA);
 177              		.loc 1 111 0
 178 00ac 0020     		movs	r0, #0
 179 00ae FFF7FEFF 		bl	I2C_MasterReadByte
 180 00b2 0346     		mov	r3, r0
 181 00b4 87F84D30 		strb	r3, [r7, #77]
 182              	.L3:
 112:main.c        ****                     }
 113:main.c        ****                 }
 114:main.c        ****             }
 115:main.c        ****             I2C_MasterSendStop();
 183              		.loc 1 115 0
 184 00b8 FFF7FEFF 		bl	I2C_MasterSendStop
 116:main.c        ****         
 117:main.c        ****             /* Data acquisition from SPI, reading (Placed here on purpose to use I2C as delay) */ 
 118:main.c        ****             SPIM_value = SPIM_ReadRxData();
 185              		.loc 1 118 0
 186 00bc FFF7FEFF 		bl	SPIM_ReadRxData
 187 00c0 0346     		mov	r3, r0
 188 00c2 A7F84E30 		strh	r3, [r7, #78]	@ movhi
 119:main.c        ****             SPIM_value = (SPIM_value >> 1) & 0x0fff; // Handling received data: shift and mask
 189              		.loc 1 119 0
 190 00c6 B7F84E30 		ldrh	r3, [r7, #78]
 191 00ca 5B08     		lsrs	r3, r3, #1
 192 00cc 9BB2     		uxth	r3, r3
 193 00ce C3F30B03 		ubfx	r3, r3, #0, #12
 194 00d2 A7F84E30 		strh	r3, [r7, #78]	@ movhi
 120:main.c        ****             
 121:main.c        ****             /* Calculate Vout running average */
 122:main.c        ****             tempCalc();
 195              		.loc 1 122 0
 196 00d6 FFF7FEFF 		bl	tempCalc
 123:main.c        ****             
 124:main.c        ****             /* Format data */ 
 125:main.c        ****             sprintf(transmit_buffer, 
 197              		.loc 1 125 0
 198 00da 1C4B     		ldr	r3, .L5+16
 199 00dc 1B68     		ldr	r3, [r3]	@ float
 200 00de 1846     		mov	r0, r3
 201 00e0 FFF7FEFF 		bl	__aeabi_f2iz
 202 00e4 8046     		mov	r8, r0
 203 00e6 1A4B     		ldr	r3, .L5+20
 204 00e8 1B68     		ldr	r3, [r3]	@ float
 205 00ea 1846     		mov	r0, r3
 206 00ec FFF7FEFF 		bl	__aeabi_f2d
 207 00f0 0446     		mov	r4, r0
 208 00f2 0D46     		mov	r5, r1
ARM GAS  C:\Users\Gemma\AppData\Local\Temp\cczmoVOE.s 			page 7


 209 00f4 97F84D60 		ldrb	r6, [r7, #77]	@ zero_extendqisi2
 126:main.c        ****                 "{ \"ADC\": %d , \"LM35\": %.1f, \"TC74\": %d, \"SPI\": %.1f }\r\n", 
 127:main.c        ****                 (int)Vout_average, temp, TC74_value, (float)SPIM_value/10 );     
 210              		.loc 1 127 0
 211 00f8 B7F84E30 		ldrh	r3, [r7, #78]
 212 00fc 1846     		mov	r0, r3
 213 00fe FFF7FEFF 		bl	__aeabi_ui2f
 214 0102 0346     		mov	r3, r0
 215 0104 1349     		ldr	r1, .L5+24
 216 0106 1846     		mov	r0, r3
 217 0108 FFF7FEFF 		bl	__aeabi_fdiv
 218 010c 0346     		mov	r3, r0
 125:main.c        ****                 "{ \"ADC\": %d , \"LM35\": %.1f, \"TC74\": %d, \"SPI\": %.1f }\r\n", 
 219              		.loc 1 125 0
 220 010e 1846     		mov	r0, r3
 221 0110 FFF7FEFF 		bl	__aeabi_f2d
 222 0114 0246     		mov	r2, r0
 223 0116 0B46     		mov	r3, r1
 224 0118 381D     		adds	r0, r7, #4
 225 011a CDE90423 		strd	r2, [sp, #16]
 226 011e 0296     		str	r6, [sp, #8]
 227 0120 CDE90045 		strd	r4, [sp]
 228 0124 4246     		mov	r2, r8
 229 0126 0C49     		ldr	r1, .L5+28
 230 0128 FFF7FEFF 		bl	sprintf
 128:main.c        ****             /* Send data to UART */
 129:main.c        ****             UART_PutString(transmit_buffer);
 231              		.loc 1 129 0
 232 012c 3B1D     		adds	r3, r7, #4
 233 012e 1846     		mov	r0, r3
 234 0130 FFF7FEFF 		bl	UART_PutString
 130:main.c        ****             
 131:main.c        ****             /* Clears flag */
 132:main.c        ****             new_data = 0;  
 235              		.loc 1 132 0
 236 0134 044B     		ldr	r3, .L5+12
 237 0136 0022     		movs	r2, #0
 238 0138 1A70     		strb	r2, [r3]
 133:main.c        ****         }
 134:main.c        ****     }
 239              		.loc 1 134 0
 240 013a 80E7     		b	.L4
 241              	.L6:
 242              		.align	2
 243              	.L5:
 244 013c 00000000 		.word	MyADCIsr
 245 0140 00000000 		.word	MyClockIsr
 246 0144 00000000 		.word	.LC0
 247 0148 00000000 		.word	new_data
 248 014c 00000000 		.word	Vout_average
 249 0150 00000000 		.word	temp
 250 0154 00002041 		.word	1092616192
 251 0158 10000000 		.word	.LC1
 252              		.cfi_endproc
 253              	.LFE64:
 254              		.size	main, .-main
 255              		.section	.text.tempCalc,"ax",%progbits
ARM GAS  C:\Users\Gemma\AppData\Local\Temp\cczmoVOE.s 			page 8


 256              		.align	2
 257              		.global	tempCalc
 258              		.thumb
 259              		.thumb_func
 260              		.type	tempCalc, %function
 261              	tempCalc:
 262              	.LFB65:
 135:main.c        **** }
 136:main.c        **** 
 137:main.c        **** /*******************************************************************************
 138:main.c        **** * Function Name: tempCalc
 139:main.c        **** ********************************************************************************
 140:main.c        **** *
 141:main.c        **** * Summary:
 142:main.c        **** *  Calculates the average of Vout and the temperature. 
 143:main.c        **** *
 144:main.c        **** * Parameters:
 145:main.c        **** *  None.
 146:main.c        **** *
 147:main.c        **** * Return:
 148:main.c        **** *  None.
 149:main.c        **** *
 150:main.c        **** *******************************************************************************/
 151:main.c        **** void tempCalc() {
 263              		.loc 1 151 0
 264              		.cfi_startproc
 265              		@ args = 0, pretend = 0, frame = 0
 266              		@ frame_needed = 1, uses_anonymous_args = 0
 267 0000 80B5     		push	{r7, lr}
 268              		.cfi_def_cfa_offset 8
 269              		.cfi_offset 7, -8
 270              		.cfi_offset 14, -4
 271 0002 00AF     		add	r7, sp, #0
 272              		.cfi_def_cfa_register 7
 152:main.c        ****     Vout_average = Vout_sum_isr / n_isr;    // Calculates running average
 273              		.loc 1 152 0
 274 0004 0B4B     		ldr	r3, .L9
 275 0006 1A68     		ldr	r2, [r3]
 276 0008 0B4B     		ldr	r3, .L9+4
 277 000a 1B68     		ldr	r3, [r3]
 278 000c B2FBF3F3 		udiv	r3, r2, r3
 279 0010 1846     		mov	r0, r3
 280 0012 FFF7FEFF 		bl	__aeabi_ui2f
 281 0016 0246     		mov	r2, r0
 282 0018 084B     		ldr	r3, .L9+8
 283 001a 1A60     		str	r2, [r3]	@ float
 153:main.c        ****     temp = Vout_average / 10;   // Converts to temperature: Vout = 10mV/C * T from LM35 datasheet
 284              		.loc 1 153 0
 285 001c 074B     		ldr	r3, .L9+8
 286 001e 1B68     		ldr	r3, [r3]	@ float
 287 0020 0749     		ldr	r1, .L9+12
 288 0022 1846     		mov	r0, r3
 289 0024 FFF7FEFF 		bl	__aeabi_fdiv
 290 0028 0346     		mov	r3, r0
 291 002a 1A46     		mov	r2, r3
 292 002c 054B     		ldr	r3, .L9+16
 293 002e 1A60     		str	r2, [r3]	@ float
ARM GAS  C:\Users\Gemma\AppData\Local\Temp\cczmoVOE.s 			page 9


 154:main.c        ****     return;
 294              		.loc 1 154 0
 295 0030 00BF     		nop
 155:main.c        **** }
 296              		.loc 1 155 0
 297 0032 80BD     		pop	{r7, pc}
 298              	.L10:
 299              		.align	2
 300              	.L9:
 301 0034 00000000 		.word	Vout_sum_isr
 302 0038 00000000 		.word	n_isr
 303 003c 00000000 		.word	Vout_average
 304 0040 00002041 		.word	1092616192
 305 0044 00000000 		.word	temp
 306              		.cfi_endproc
 307              	.LFE65:
 308              		.size	tempCalc, .-tempCalc
 309              		.section	.text.MyADCIsr,"ax",%progbits
 310              		.align	2
 311              		.global	MyADCIsr
 312              		.thumb
 313              		.thumb_func
 314              		.type	MyADCIsr, %function
 315              	MyADCIsr:
 316              	.LFB66:
 156:main.c        **** 
 157:main.c        **** /*******************************************************************************
 158:main.c        **** * Function Name: MyADCIsr         ADC Interrupt Service Routine
 159:main.c        **** ********************************************************************************
 160:main.c        **** *
 161:main.c        **** * Summary:
 162:main.c        **** *  Reads Vout data from sensor, adds to running average aand increment sampling
 163:main.c        **** *  counter by one.
 164:main.c        **** *
 165:main.c        **** * Parameters:  
 166:main.c        **** *
 167:main.c        **** * Return:
 168:main.c        **** *   None
 169:main.c        **** *
 170:main.c        **** *******************************************************************************/
 171:main.c        **** CY_ISR(MyADCIsr) {
 317              		.loc 1 171 0
 318              		.cfi_startproc
 319              		@ args = 0, pretend = 0, frame = 8
 320              		@ frame_needed = 1, uses_anonymous_args = 0
 321 0000 80B5     		push	{r7, lr}
 322              		.cfi_def_cfa_offset 8
 323              		.cfi_offset 7, -8
 324              		.cfi_offset 14, -4
 325 0002 82B0     		sub	sp, sp, #8
 326              		.cfi_def_cfa_offset 16
 327 0004 00AF     		add	r7, sp, #0
 328              		.cfi_def_cfa_register 7
 172:main.c        ****     uint32 Output = ADC_DelSig_CountsTo_mVolts(ADC_DelSig_GetResult16());
 329              		.loc 1 172 0
 330 0006 FFF7FEFF 		bl	ADC_DelSig_GetResult16
 331 000a 0346     		mov	r3, r0
ARM GAS  C:\Users\Gemma\AppData\Local\Temp\cczmoVOE.s 			page 10


 332 000c 1846     		mov	r0, r3
 333 000e FFF7FEFF 		bl	ADC_DelSig_CountsTo_mVolts
 334 0012 0346     		mov	r3, r0
 335 0014 7B60     		str	r3, [r7, #4]
 173:main.c        ****     Vout_sum += Output;
 336              		.loc 1 173 0
 337 0016 074B     		ldr	r3, .L12
 338 0018 1A68     		ldr	r2, [r3]
 339 001a 7B68     		ldr	r3, [r7, #4]
 340 001c 1344     		add	r3, r3, r2
 341 001e 054A     		ldr	r2, .L12
 342 0020 1360     		str	r3, [r2]
 174:main.c        ****     n++;
 343              		.loc 1 174 0
 344 0022 054B     		ldr	r3, .L12+4
 345 0024 1B68     		ldr	r3, [r3]
 346 0026 0133     		adds	r3, r3, #1
 347 0028 034A     		ldr	r2, .L12+4
 348 002a 1360     		str	r3, [r2]
 175:main.c        **** }
 349              		.loc 1 175 0
 350 002c 00BF     		nop
 351 002e 0837     		adds	r7, r7, #8
 352              		.cfi_def_cfa_offset 8
 353 0030 BD46     		mov	sp, r7
 354              		.cfi_def_cfa_register 13
 355              		@ sp needed
 356 0032 80BD     		pop	{r7, pc}
 357              	.L13:
 358              		.align	2
 359              	.L12:
 360 0034 00000000 		.word	Vout_sum
 361 0038 00000000 		.word	n
 362              		.cfi_endproc
 363              	.LFE66:
 364              		.size	MyADCIsr, .-MyADCIsr
 365              		.section	.text.MyClockIsr,"ax",%progbits
 366              		.align	2
 367              		.global	MyClockIsr
 368              		.thumb
 369              		.thumb_func
 370              		.type	MyClockIsr, %function
 371              	MyClockIsr:
 372              	.LFB67:
 176:main.c        **** 
 177:main.c        **** /*******************************************************************************
 178:main.c        **** * Function Name: MyClockIsr         Timer Interrupt Service Routine
 179:main.c        **** ********************************************************************************
 180:main.c        **** *
 181:main.c        **** * Summary:
 182:main.c        **** *  Reads the control register and returns it's value.
 183:main.c        **** *  Copies and resets respective parameters while ADC interrupt is disabled.
 184:main.c        **** *  Sets flag to transmit information to UART.
 185:main.c        **** *
 186:main.c        **** * Parameters:  
 187:main.c        **** *
 188:main.c        **** * Return:
ARM GAS  C:\Users\Gemma\AppData\Local\Temp\cczmoVOE.s 			page 11


 189:main.c        **** *   None
 190:main.c        **** *
 191:main.c        **** *******************************************************************************/
 192:main.c        **** CY_ISR(MyClockIsr) {
 373              		.loc 1 192 0
 374              		.cfi_startproc
 375              		@ args = 0, pretend = 0, frame = 0
 376              		@ frame_needed = 1, uses_anonymous_args = 0
 377 0000 80B5     		push	{r7, lr}
 378              		.cfi_def_cfa_offset 8
 379              		.cfi_offset 7, -8
 380              		.cfi_offset 14, -4
 381 0002 00AF     		add	r7, sp, #0
 382              		.cfi_def_cfa_register 7
 193:main.c        ****     Timer_ReadStatusRegister();
 383              		.loc 1 193 0
 384 0004 FFF7FEFF 		bl	Timer_ReadStatusRegister
 194:main.c        ****     ADC_Isr_Disable();
 385              		.loc 1 194 0
 386 0008 FFF7FEFF 		bl	ADC_Isr_Disable
 195:main.c        ****     Vout_sum_isr = Vout_sum;
 387              		.loc 1 195 0
 388 000c 0A4B     		ldr	r3, .L15
 389 000e 1B68     		ldr	r3, [r3]
 390 0010 0A4A     		ldr	r2, .L15+4
 391 0012 1360     		str	r3, [r2]
 196:main.c        ****     n_isr = n;
 392              		.loc 1 196 0
 393 0014 0A4B     		ldr	r3, .L15+8
 394 0016 1B68     		ldr	r3, [r3]
 395 0018 0A4A     		ldr	r2, .L15+12
 396 001a 1360     		str	r3, [r2]
 197:main.c        ****     Vout_sum = 0;
 397              		.loc 1 197 0
 398 001c 064B     		ldr	r3, .L15
 399 001e 0022     		movs	r2, #0
 400 0020 1A60     		str	r2, [r3]
 198:main.c        ****     n = 0;
 401              		.loc 1 198 0
 402 0022 074B     		ldr	r3, .L15+8
 403 0024 0022     		movs	r2, #0
 404 0026 1A60     		str	r2, [r3]
 199:main.c        ****     ADC_Isr_Enable();
 405              		.loc 1 199 0
 406 0028 FFF7FEFF 		bl	ADC_Isr_Enable
 200:main.c        ****     new_data = 1;
 407              		.loc 1 200 0
 408 002c 064B     		ldr	r3, .L15+16
 409 002e 0122     		movs	r2, #1
 410 0030 1A70     		strb	r2, [r3]
 201:main.c        **** }
 411              		.loc 1 201 0
 412 0032 00BF     		nop
 413 0034 80BD     		pop	{r7, pc}
 414              	.L16:
 415 0036 00BF     		.align	2
 416              	.L15:
ARM GAS  C:\Users\Gemma\AppData\Local\Temp\cczmoVOE.s 			page 12


 417 0038 00000000 		.word	Vout_sum
 418 003c 00000000 		.word	Vout_sum_isr
 419 0040 00000000 		.word	n
 420 0044 00000000 		.word	n_isr
 421 0048 00000000 		.word	new_data
 422              		.cfi_endproc
 423              	.LFE67:
 424              		.size	MyClockIsr, .-MyClockIsr
 425              		.text
 426              	.Letext0:
 427              		.file 2 "c:\\program files (x86)\\cypress\\psoc creator\\4.2\\psoc creator\\import\\gnu\\arm\\5.4.
 428              		.file 3 "c:\\program files (x86)\\cypress\\psoc creator\\4.2\\psoc creator\\import\\gnu\\arm\\5.4.
 429              		.file 4 "Generated_Source\\PSoC5/cytypes.h"
 430              		.file 5 "Generated_Source\\PSoC5/core_cm3.h"