ARM GAS  C:\Users\Gemma\AppData\Local\Temp\cc7tZZYu.s 			page 1


   1              		.syntax unified
   2              		.cpu cortex-m3
   3              		.fpu softvfp
   4              		.eabi_attribute 20, 1
   5              		.eabi_attribute 21, 1
   6              		.eabi_attribute 23, 3
   7              		.eabi_attribute 24, 1
   8              		.eabi_attribute 25, 1
   9              		.eabi_attribute 26, 1
  10              		.eabi_attribute 30, 1
  11              		.eabi_attribute 34, 1
  12              		.eabi_attribute 18, 4
  13              		.thumb
  14              		.syntax unified
  15              		.file	"main.c"
  16              		.text
  17              	.Ltext0:
  18              		.cfi_sections	.debug_frame
  19              		.section	.text.main,"ax",%progbits
  20              		.align	2
  21              		.global	main
  22              		.thumb
  23              		.thumb_func
  24              		.type	main, %function
  25              	main:
  26              	.LFB64:
  27              		.file 1 "main.c"
   1:main.c        **** /* ================================================================
   2:main.c        ****  *
   3:main.c        ****  * Copyright: Gemma Qin,  Metropolia UAS, Finland, 2024
   4:main.c        ****  *
   5:main.c        ****  * PSoC Design Course 2024: Exercise 1, Fundamentals
   6:main.c        ****  *
   7:main.c        ****  * Blinks LED at rate about 1 sec when button is pressed.
   8:main.c        ****  *
   9:main.c        ****  * ================================================================
  10:main.c        **** */
  11:main.c        **** 
  12:main.c        **** #include <stdio.h>
  13:main.c        **** #include "project.h"
  14:main.c        **** 
  15:main.c        **** int main(void)
  16:main.c        **** {
  28              		.loc 1 16 0
  29              		.cfi_startproc
  30              		@ args = 0, pretend = 0, frame = 24
  31              		@ frame_needed = 0, uses_anonymous_args = 0
  32 0000 30B5     		push	{r4, r5, lr}
  33              		.cfi_def_cfa_offset 12
  34              		.cfi_offset 4, -12
  35              		.cfi_offset 5, -8
  36              		.cfi_offset 14, -4
  37 0002 87B0     		sub	sp, sp, #28
  38              		.cfi_def_cfa_offset 40
  17:main.c        ****     CyGlobalIntEnable; /* Enable global interrupts. */
  39              		.loc 1 17 0
  40              		.syntax unified
ARM GAS  C:\Users\Gemma\AppData\Local\Temp\cc7tZZYu.s 			page 2


  41              	@ 17 "main.c" 1
  42 0004 62B6     		CPSIE   i
  43              	@ 0 "" 2
  44              	.LVL0:
  18:main.c        ****   
  19:main.c        ****     /* Variables */
  20:main.c        ****     uint8 counter = 0;
  21:main.c        ****     char str[20] = {"Gemma Qin\r\n"}; /* \r: ASCII 13, \n: ASCII 10 */
  45              		.loc 1 21 0
  46              		.thumb
  47              		.syntax unified
  48 0006 1A4B     		ldr	r3, .L7
  49 0008 01AC     		add	r4, sp, #4
  50 000a 93E80700 		ldmia	r3, {r0, r1, r2}
  51 000e 84E80700 		stmia	r4, {r0, r1, r2}
  52 0012 0025     		movs	r5, #0
  53 0014 0495     		str	r5, [sp, #16]
  54 0016 0595     		str	r5, [sp, #20]
  22:main.c        ****     
  23:main.c        ****     /* Initialisation of components*/
  24:main.c        ****     UART_Start();
  55              		.loc 1 24 0
  56 0018 FFF7FEFF 		bl	UART_Start
  57              	.LVL1:
  25:main.c        **** 
  26:main.c        ****     /* UART transmission of string */
  27:main.c        ****     UART_PutString(str);
  58              		.loc 1 27 0
  59 001c 2046     		mov	r0, r4
  60 001e FFF7FEFF 		bl	UART_PutString
  61              	.LVL2:
  62              	.L2:
  28:main.c        ****     
  29:main.c        ****     for(;;)  /* Forever loop */
  30:main.c        ****     {
  31:main.c        ****         /* Blinks blue LED if button pressed and increments blink counter */
  32:main.c        ****         if (!Button_Read()) {
  63              		.loc 1 32 0
  64 0022 FFF7FEFF 		bl	Button_Read
  65              	.LVL3:
  66 0026 90B9     		cbnz	r0, .L3
  33:main.c        ****             LED1_Write(counter++ % 2);
  67              		.loc 1 33 0
  68 0028 6C1C     		adds	r4, r5, #1
  69 002a E4B2     		uxtb	r4, r4
  70              	.LVL4:
  71 002c 05F00100 		and	r0, r5, #1
  72 0030 FFF7FEFF 		bl	LED1_Write
  73              	.LVL5:
  34:main.c        ****             if (counter % 2 == 0) {
  74              		.loc 1 34 0
  75 0034 14F0010F 		tst	r4, #1
  76 0038 04D1     		bne	.L4
  35:main.c        ****                 CyDelay(200);   // 200 ms ON
  77              		.loc 1 35 0
  78 003a C820     		movs	r0, #200
  79 003c FFF7FEFF 		bl	CyDelay
ARM GAS  C:\Users\Gemma\AppData\Local\Temp\cc7tZZYu.s 			page 3


  80              	.LVL6:
  33:main.c        ****             LED1_Write(counter++ % 2);
  81              		.loc 1 33 0
  82 0040 2546     		mov	r5, r4
  83 0042 04E0     		b	.L3
  84              	.L4:
  36:main.c        ****             } else {
  37:main.c        ****                 CyDelay(800);   // 800 ms OFF 
  85              		.loc 1 37 0
  86 0044 4FF44870 		mov	r0, #800
  87 0048 FFF7FEFF 		bl	CyDelay
  88              	.LVL7:
  33:main.c        ****             if (counter % 2 == 0) {
  89              		.loc 1 33 0
  90 004c 2546     		mov	r5, r4
  91              	.LVL8:
  92              	.L3:
  38:main.c        ****             }
  39:main.c        ****         }
  40:main.c        ****         /* Reads char from UART and transmits blink counter */ 
  41:main.c        ****         if (UART_GetChar()) {
  93              		.loc 1 41 0
  94 004e FFF7FEFF 		bl	UART_GetChar
  95              	.LVL9:
  96 0052 0028     		cmp	r0, #0
  97 0054 E5D0     		beq	.L2
  42:main.c        ****             sprintf(str, "%d\r\n", counter);
  98              		.loc 1 42 0
  99 0056 2A46     		mov	r2, r5
 100 0058 0649     		ldr	r1, .L7+4
 101 005a 01A8     		add	r0, sp, #4
 102 005c FFF7FEFF 		bl	sprintf
 103              	.LVL10:
  43:main.c        ****             UART_PutString(str);
 104              		.loc 1 43 0
 105 0060 01A8     		add	r0, sp, #4
 106 0062 FFF7FEFF 		bl	UART_PutString
 107              	.LVL11:
  44:main.c        ****             CyDelay(1000);
 108              		.loc 1 44 0
 109 0066 4FF47A70 		mov	r0, #1000
 110 006a FFF7FEFF 		bl	CyDelay
 111              	.LVL12:
 112 006e D8E7     		b	.L2
 113              	.L8:
 114              		.align	2
 115              	.L7:
 116 0070 00000000 		.word	.LANCHOR0
 117 0074 00000000 		.word	.LC1
 118              		.cfi_endproc
 119              	.LFE64:
 120              		.size	main, .-main
 121              		.section	.rodata
 122              		.align	2
 123              		.set	.LANCHOR0,. + 0
 124              	.LC0:
 125 0000 47656D6D 		.ascii	"Gemma Qin\015\012\000"
ARM GAS  C:\Users\Gemma\AppData\Local\Temp\cc7tZZYu.s 			page 4


 125      61205169 
 125      6E0D0A00 
 126 000c 00000000 		.space	8
 126      00000000 
 127              		.section	.rodata.str1.4,"aMS",%progbits,1
 128              		.align	2
 129              	.LC1:
 130 0000 25640D0A 		.ascii	"%d\015\012\000"
 130      00
 131              		.text
 132              	.Letext0:
 133              		.file 2 "c:\\program files (x86)\\cypress\\psoc creator\\4.2\\psoc creator\\import\\gnu\\arm\\5.4.
 134              		.file 3 "c:\\program files (x86)\\cypress\\psoc creator\\4.2\\psoc creator\\import\\gnu\\arm\\5.4.
 135              		.file 4 "Generated_Source\\PSoC5/cytypes.h"
 136              		.file 5 "Generated_Source\\PSoC5/UART.h"
 137              		.file 6 "Generated_Source\\PSoC5/Button.h"
 138              		.file 7 "Generated_Source\\PSoC5/LED1.h"
 139              		.file 8 "Generated_Source\\PSoC5/CyLib.h"
 140              		.file 9 "c:\\program files (x86)\\cypress\\psoc creator\\4.2\\psoc creator\\import\\gnu\\arm\\5.4.
 141              		.file 10 "Generated_Source\\PSoC5/core_cm3.h"